Component: ARM Compiler 5.06 update 1 (build 61) Tool: armlink [4d35a8]

==============================================================================

Section Cross References

    fsmc_sram.o(.text) refers to stm32f10x_fsmc.o(.text) for FSMC_NORSRAMInit
    main.o(.text) refers to config_hard.o(.text) for DelayMs
    main.o(.text) refers to lcd1602.o(.text) for BEEP_BIBI
    main.o(.text) refers to delay.o(.text) for delay_ms
    main.o(.text) refers to ra8876.o(.text) for Select_PIP2_Window_24bpp
    main.o(.text) refers to lcd.o(.text) for PIP_Set_DisplayWindow_A
    main.o(.text) refers to disp.o(.text) for Disp_BMP
    main.o(.text) refers to stm32f10x_gpio.o(.text) for GPIO_EXTILineConfig
    main.o(.text) refers to stm32f10x_exti.o(.text) for EXTI_Init
    main.o(.text) refers to misc.o(.text) for NVIC_Init
    main.o(.text) refers to stm32f10x_rcc.o(.text) for RCC_APB2PeriphClockCmd
    main.o(.text) refers to main.o(.data) for HorA
    main.o(.text) refers to config_hard.o(.data) for PIC_SET_CACHE
    main.o(.text) refers to disp.o(.data) for image_count
    main.o(.text) refers to system_stm32f10x.o(.text) for SystemInit
    main.o(.text) refers to spi_flash.o(.text) for SPI_Peripheral_Init
    main.o(.text) refers to usart.o(.text) for USART_Configuration
    main.o(.text) refers to iic_current.o(.text) for T226_intion
    main.o(.text) refers to sdcard.o(.text) for SD_Init
    main.o(.text) refers to fat.o(.text) for FAT_Init
    main.o(.text) refers to printf1.o(i.__0printf$1) for __2printf
    main.o(.text) refers to fsmc_sram.o(.text) for FSMC_LCD_Init_H
    main.o(.text) refers to main.o(.bss) for SDCardInfo
    main.o(.text) refers to config_hard.o(.bss) for TIMING_SET
    main.o(.text) refers to stm32f10x_tim.o(.text) for TIM_DeInit
    stm32f10x_it.o(.text) refers to main.o(.text) for EXTI13_IRQHandler
    stm32f10x_it.o(.text) refers to sdcard.o(.text) for SD_ProcessIRQSrc
    delay.o(.text) refers to delay.o(.data) for fac_us
    spi_flash.o(.text) refers to stm32f10x_rcc.o(.text) for RCC_APB2PeriphClockCmd
    spi_flash.o(.text) refers to stm32f10x_gpio.o(.text) for GPIO_Init
    spi_flash.o(.text) refers to stm32f10x_spi.o(.text) for SPI_Init
    spi_flash.o(.text) refers to delay.o(.text) for delay_ms
    spi_flash.o(.text) refers to stm32f10x_usart.o(.text) for USART_SendData
    spi_flash.o(.text) refers to spi_flash.o(.bss) for Flash_Data_Buff
    spi_flash.o(.text) refers to spi_flash.o(.data) for mem_buffer1
    usart.o(.text) refers to stm32f10x_gpio.o(.text) for GPIO_Init
    usart.o(.text) refers to stm32f10x_usart.o(.text) for USART_Init
    ra8876_demo.o(.text) refers to ra8876.o(.text) for Select_Main_Window_16bpp
    ra8876_demo.o(.text) refers to lcd.o(.text) for LCD_Clear
    ra8876_demo.o(.text) refers to delay.o(.text) for delay_seconds
    ra8876_demo.o(.text) refers to rand.o(.text) for rand
    ra8876_demo.o(.text) refers to printf1.o(i.__0printf$1) for __2printf
    ra8876_demo.o(.text) refers to ra8876_demo.o(.constdata) for gImage_pen_il
    ra8876_demo.o(.text) refers to ra8876_demo.o(.conststring) for .conststring
    config_hard.o(.text) refers to lcd1602.o(.text) for LCD1602_display_Line_A
    config_hard.o(.text) refers to delay.o(.text) for delay_ms
    config_hard.o(.text) refers to spi_flash.o(.text) for W25Qxx_Flash_WriteData
    config_hard.o(.text) refers to memcpya.o(.text) for __aeabi_memcpy
    config_hard.o(.text) refers to stm32f10x_rcc.o(.text) for RCC_APB2PeriphClockCmd
    config_hard.o(.text) refers to stm32f10x_gpio.o(.text) for GPIO_PinRemapConfig
    config_hard.o(.text) refers to config_hard.o(.data) for LCM_TYPE
    config_hard.o(.text) refers to spi_flash.o(.bss) for mem_buffer
    config_hard.o(.text) refers to config_hard.o(.bss) for TIMING_SET
    config_hard.o(.text) refers to stm32f10x_usart.o(.text) for USART_SendData
    config_hard.o(.text) refers to printfa.o(i.__0vsprintf) for __c89vsprintf
    disp.o(.text) refers to fat.o(.text) for Search_man
    disp.o(.text) refers to malloc.o(i.malloc) for malloc
    disp.o(.text) refers to lcd.o(.text) for LCD_DrawPoint
    disp.o(.text) refers to malloc.o(i.free) for free
    disp.o(.text) refers to disp.o(.data) for image_all
    disp.o(.text) refers to disp.o(.bss) for BMPInfo
    disp.o(.text) refers to fat.o(.data) for SectorsPerClust
    lcd1602.o(.text) refers to stm32f10x_rcc.o(.text) for RCC_APB2PeriphClockCmd
    lcd1602.o(.text) refers to stm32f10x_gpio.o(.text) for GPIO_Init
    lcd1602.o(.text) refers to config_hard.o(.text) for DelayMs
    gt9271.o(.text) refers to delay.o(.text) for delay_us
    gt9271.o(.text) refers to stm32f10x_rcc.o(.text) for RCC_APB2PeriphClockCmd
    gt9271.o(.text) refers to stm32f10x_gpio.o(.text) for GPIO_PinRemapConfig
    gt9271.o(.text) refers to memcpya.o(.text) for __aeabi_memcpy4
    gt9271.o(.text) refers to gt9271.o(.constdata) for .constdata
    gt9271.o(.text) refers to gt9271.o(.bss) for pucData_A
    gt9271.o(.text) refers to gt9271.o(.data) for TOUCH_TX
    gt9271.o(.text) refers to config_hard.o(.text) for DelayMs
    gt9271.o(.text) refers to lcd1602.o(.text) for LCD1602_display_DATA
    gt9271.o(.text) refers to config_hard.o(.data) for LCM_TYPE
    gt9271.o(.text) refers to spi_flash.o(.text) for W25Qxx_Flash_WriteData
    gt9271.o(.text) refers to stm32f10x_usart.o(.text) for USART_SendData
    gt9271.o(.text) refers to spi_flash.o(.bss) for mem_buffer
    iic_current.o(.text) refers to stm32f10x_rcc.o(.text) for RCC_APB2PeriphClockCmd
    iic_current.o(.text) refers to stm32f10x_gpio.o(.text) for GPIO_Init
    iic_current.o(.text) refers to gt9271.o(.text) for TWait
    iic_current.o(.text) refers to delay.o(.text) for delay_ms
    iic_current.o(.text) refers to lcd1602.o(.text) for BEEP_BIBI
    iic_current.o(.text) refers to config_hard.o(.text) for DelayMs
    iic_current.o(.text) refers to memseta.o(.text) for __aeabi_memclr4
    iic_current.o(.text) refers to gt9271.o(.data) for pucData
    iic_current.o(.text) refers to iic_current.o(.data) for IDD_UA_preset
    stm32f10x_gpio.o(.text) refers to stm32f10x_rcc.o(.text) for RCC_APB2PeriphResetCmd
    stm32f10x_rcc.o(.text) refers to stm32f10x_rcc.o(.data) for APBAHBPrescTable
    stm32f10x_usart.o(.text) refers to stm32f10x_rcc.o(.text) for RCC_APB2PeriphResetCmd
    stm32f10x_spi.o(.text) refers to stm32f10x_rcc.o(.text) for RCC_APB2PeriphResetCmd
    stm32f10x_bkp.o(.text) refers to stm32f10x_rcc.o(.text) for RCC_BackupResetCmd
    stm32f10x_pwr.o(.text) refers to stm32f10x_rcc.o(.text) for RCC_APB1PeriphResetCmd
    stm32f10x_tim.o(.text) refers to stm32f10x_rcc.o(.text) for RCC_APB2PeriphResetCmd
    startup_stm32f10x_hd.o(RESET) refers to startup_stm32f10x_hd.o(.text) for Reset_Handler
    startup_stm32f10x_hd.o(RESET) refers to stm32f10x_it.o(.text) for NMI_Handler
    startup_stm32f10x_hd.o(.text) refers to startup_stm32f10x_hd.o(STACK) for __initial_sp
    startup_stm32f10x_hd.o(.text) refers to entry.o(.ARM.Collect$$$$00000000) for __main
    ra8876.o(.text) refers to delay.o(.text) for delay_ms
    ra8876.o(.text) refers to config_hard.o(.bss) for TIMING_SET
    ra8876.o(.text) refers to ra8876.o(.data) for SCAN_FREQ
    lcd.o(.text) refers to stm32f10x_gpio.o(.text) for GPIO_ResetBits
    lcd.o(.text) refers to delay.o(.text) for delay_ms
    lcd.o(.text) refers to ra8876.o(.text) for Canvas_Image_Start_address
    lcd.o(.text) refers to main.o(.data) for SDShowTimes
    lcd.o(.text) refers to lcd.o(.data) for TextColor
    lcd.o(.text) refers to config_hard.o(.bss) for TIMING_SET
    lcd.o(.text) refers to memcpya.o(.text) for __aeabi_memcpy
    lcd.o(.text) refers to memseta.o(.text) for __aeabi_memset
    lcd.o(.text) refers to lcd.o(.constdata) for ASCII_Table
    lcd.o(.text) refers to 24x48.o(.constdata) for code24x48
    lcd.o(.text) refers to gb4848.o(.constdata) for codeGB_48
    sdcard.o(.text) refers to stm32f10x_sdio.o(.text) for SDIO_GetPowerState
    sdcard.o(.text) refers to sdcard.o(.data) for .data
    sdcard.o(.text) refers to sdcard.o(.bss) for .bss
    sdcard.o(.text) refers to stm32f10x_rcc.o(.text) for RCC_APB2PeriphClockCmd
    sdcard.o(.text) refers to stm32f10x_gpio.o(.text) for GPIO_Init
    sdcard.o(.text) refers to main.o(.data) for sd_Capacity
    sdcard.o(.text) refers to stm32f10x_dma.o(.text) for DMA_ClearFlag
    fat.o(.text) refers to sdcard.o(.text) for SD_ReadBlock
    fat.o(.text) refers to malloc.o(i.malloc) for malloc
    fat.o(.text) refers to malloc.o(i.free) for free
    fat.o(.text) refers to main.o(.data) for sd_Capacity
    fat.o(.text) refers to fat.o(.data) for .data
    fat.o(.text) refers to fat.o(i.__ARM_common_memset4_12) for __ARM_common_memset4_12
    fat.o(.text) refers to memseta.o(.text) for __aeabi_memclr
    fat.o(.text) refers to fat.o(.bss) for .bss
    entry.o(.ARM.Collect$$$$00000000) refers (Special) to entry10a.o(.ARM.Collect$$$$0000000D) for __rt_final_cpp
    entry.o(.ARM.Collect$$$$00000000) refers (Special) to entry11a.o(.ARM.Collect$$$$0000000F) for __rt_final_exit
    entry.o(.ARM.Collect$$$$00000000) refers (Special) to entry7b.o(.ARM.Collect$$$$00000008) for _main_clock
    entry.o(.ARM.Collect$$$$00000000) refers (Special) to entry8b.o(.ARM.Collect$$$$0000000A) for _main_cpp_init
    entry.o(.ARM.Collect$$$$00000000) refers (Special) to entry9a.o(.ARM.Collect$$$$0000000B) for _main_init
    entry.o(.ARM.Collect$$$$00000000) refers (Special) to entry5.o(.ARM.Collect$$$$00000004) for _main_scatterload
    entry.o(.ARM.Collect$$$$00000000) refers (Special) to entry2.o(.ARM.Collect$$$$00000001) for _main_stk
    rand.o(.text) refers to rand.o(.data) for .data
    printfb.o(i.__0fprintf$bare) refers to printfb.o(i._printf_core) for _printf_core
    printfb.o(i.__0fprintf$bare) refers to usart.o(.text) for fputc
    printfb.o(i.__0printf$bare) refers to printfb.o(i._printf_core) for _printf_core
    printfb.o(i.__0printf$bare) refers to usart.o(.text) for fputc
    printfb.o(i.__0printf$bare) refers to stdout.o(.data) for __stdout
    printfb.o(i.__0snprintf$bare) refers to printfb.o(i._printf_core) for _printf_core
    printfb.o(i.__0snprintf$bare) refers to printfb.o(i._snputc) for _snputc
    printfb.o(i.__0sprintf$bare) refers to printfb.o(i._printf_core) for _printf_core
    printfb.o(i.__0sprintf$bare) refers to printfb.o(i._sputc) for _sputc
    printfb.o(i.__0vfprintf$bare) refers to printfb.o(i._printf_core) for _printf_core
    printfb.o(i.__0vfprintf$bare) refers to usart.o(.text) for fputc
    printfb.o(i.__0vprintf$bare) refers to printfb.o(i._printf_core) for _printf_core
    printfb.o(i.__0vprintf$bare) refers to usart.o(.text) for fputc
    printfb.o(i.__0vprintf$bare) refers to stdout.o(.data) for __stdout
    printfb.o(i.__0vsnprintf$bare) refers to printfb.o(i._printf_core) for _printf_core
    printfb.o(i.__0vsnprintf$bare) refers to printfb.o(i._snputc) for _snputc
    printfb.o(i.__0vsprintf$bare) refers to printfb.o(i._printf_core) for _printf_core
    printfb.o(i.__0vsprintf$bare) refers to printfb.o(i._sputc) for _sputc
    printf0.o(i.__0fprintf$0) refers to printf0.o(i._printf_core) for _printf_core
    printf0.o(i.__0fprintf$0) refers to usart.o(.text) for fputc
    printf0.o(i.__0printf$0) refers to printf0.o(i._printf_core) for _printf_core
    printf0.o(i.__0printf$0) refers to usart.o(.text) for fputc
    printf0.o(i.__0printf$0) refers to stdout.o(.data) for __stdout
    printf0.o(i.__0snprintf$0) refers to printf0.o(i._printf_core) for _printf_core
    printf0.o(i.__0snprintf$0) refers to printf0.o(i._snputc) for _snputc
    printf0.o(i.__0sprintf$0) refers to printf0.o(i._printf_core) for _printf_core
    printf0.o(i.__0sprintf$0) refers to printf0.o(i._sputc) for _sputc
    printf0.o(i.__0vfprintf$0) refers to printf0.o(i._printf_core) for _printf_core
    printf0.o(i.__0vfprintf$0) refers to usart.o(.text) for fputc
    printf0.o(i.__0vprintf$0) refers to printf0.o(i._printf_core) for _printf_core
    printf0.o(i.__0vprintf$0) refers to usart.o(.text) for fputc
    printf0.o(i.__0vprintf$0) refers to stdout.o(.data) for __stdout
    printf0.o(i.__0vsnprintf$0) refers to printf0.o(i._printf_core) for _printf_core
    printf0.o(i.__0vsnprintf$0) refers to printf0.o(i._snputc) for _snputc
    printf0.o(i.__0vsprintf$0) refers to printf0.o(i._printf_core) for _printf_core
    printf0.o(i.__0vsprintf$0) refers to printf0.o(i._sputc) for _sputc
    printf1.o(i.__0fprintf$1) refers to printf1.o(i._printf_core) for _printf_core
    printf1.o(i.__0fprintf$1) refers to usart.o(.text) for fputc
    printf1.o(i.__0printf$1) refers to printf1.o(i._printf_core) for _printf_core
    printf1.o(i.__0printf$1) refers to usart.o(.text) for fputc
    printf1.o(i.__0printf$1) refers to stdout.o(.data) for __stdout
    printf1.o(i.__0snprintf$1) refers to printf1.o(i._printf_core) for _printf_core
    printf1.o(i.__0snprintf$1) refers to printf1.o(i._snputc) for _snputc
    printf1.o(i.__0sprintf$1) refers to printf1.o(i._printf_core) for _printf_core
    printf1.o(i.__0sprintf$1) refers to printf1.o(i._sputc) for _sputc
    printf1.o(i.__0vfprintf$1) refers to printf1.o(i._printf_core) for _printf_core
    printf1.o(i.__0vfprintf$1) refers to usart.o(.text) for fputc
    printf1.o(i.__0vprintf$1) refers to printf1.o(i._printf_core) for _printf_core
    printf1.o(i.__0vprintf$1) refers to usart.o(.text) for fputc
    printf1.o(i.__0vprintf$1) refers to stdout.o(.data) for __stdout
    printf1.o(i.__0vsnprintf$1) refers to printf1.o(i._printf_core) for _printf_core
    printf1.o(i.__0vsnprintf$1) refers to printf1.o(i._snputc) for _snputc
    printf1.o(i.__0vsprintf$1) refers to printf1.o(i._printf_core) for _printf_core
    printf1.o(i.__0vsprintf$1) refers to printf1.o(i._sputc) for _sputc
    printf1.o(i._printf_core) refers to uidiv.o(.text) for __aeabi_uidivmod
    printf2.o(i.__0fprintf$2) refers to printf2.o(i._printf_core) for _printf_core
    printf2.o(i.__0fprintf$2) refers to usart.o(.text) for fputc
    printf2.o(i.__0printf$2) refers to printf2.o(i._printf_core) for _printf_core
    printf2.o(i.__0printf$2) refers to usart.o(.text) for fputc
    printf2.o(i.__0printf$2) refers to stdout.o(.data) for __stdout
    printf2.o(i.__0snprintf$2) refers to printf2.o(i._printf_core) for _printf_core
    printf2.o(i.__0snprintf$2) refers to printf2.o(i._snputc) for _snputc
    printf2.o(i.__0sprintf$2) refers to printf2.o(i._printf_core) for _printf_core
    printf2.o(i.__0sprintf$2) refers to printf2.o(i._sputc) for _sputc
    printf2.o(i.__0vfprintf$2) refers to printf2.o(i._printf_core) for _printf_core
    printf2.o(i.__0vfprintf$2) refers to usart.o(.text) for fputc
    printf2.o(i.__0vprintf$2) refers to printf2.o(i._printf_core) for _printf_core
    printf2.o(i.__0vprintf$2) refers to usart.o(.text) for fputc
    printf2.o(i.__0vprintf$2) refers to stdout.o(.data) for __stdout
    printf2.o(i.__0vsnprintf$2) refers to printf2.o(i._printf_core) for _printf_core
    printf2.o(i.__0vsnprintf$2) refers to printf2.o(i._snputc) for _snputc
    printf2.o(i.__0vsprintf$2) refers to printf2.o(i._printf_core) for _printf_core
    printf2.o(i.__0vsprintf$2) refers to printf2.o(i._sputc) for _sputc
    printf3.o(i.__0fprintf$3) refers to printf3.o(i._printf_core) for _printf_core
    printf3.o(i.__0fprintf$3) refers to usart.o(.text) for fputc
    printf3.o(i.__0printf$3) refers to printf3.o(i._printf_core) for _printf_core
    printf3.o(i.__0printf$3) refers to usart.o(.text) for fputc
    printf3.o(i.__0printf$3) refers to stdout.o(.data) for __stdout
    printf3.o(i.__0snprintf$3) refers to printf3.o(i._printf_core) for _printf_core
    printf3.o(i.__0snprintf$3) refers to printf3.o(i._snputc) for _snputc
    printf3.o(i.__0sprintf$3) refers to printf3.o(i._printf_core) for _printf_core
    printf3.o(i.__0sprintf$3) refers to printf3.o(i._sputc) for _sputc
    printf3.o(i.__0vfprintf$3) refers to printf3.o(i._printf_core) for _printf_core
    printf3.o(i.__0vfprintf$3) refers to usart.o(.text) for fputc
    printf3.o(i.__0vprintf$3) refers to printf3.o(i._printf_core) for _printf_core
    printf3.o(i.__0vprintf$3) refers to usart.o(.text) for fputc
    printf3.o(i.__0vprintf$3) refers to stdout.o(.data) for __stdout
    printf3.o(i.__0vsnprintf$3) refers to printf3.o(i._printf_core) for _printf_core
    printf3.o(i.__0vsnprintf$3) refers to printf3.o(i._snputc) for _snputc
    printf3.o(i.__0vsprintf$3) refers to printf3.o(i._printf_core) for _printf_core
    printf3.o(i.__0vsprintf$3) refers to printf3.o(i._sputc) for _sputc
    printf3.o(i._printf_core) refers to uidiv.o(.text) for __aeabi_uidivmod
    printf4.o(i.__0fprintf$4) refers to printf4.o(i._printf_core) for _printf_core
    printf4.o(i.__0fprintf$4) refers to usart.o(.text) for fputc
    printf4.o(i.__0printf$4) refers to printf4.o(i._printf_core) for _printf_core
    printf4.o(i.__0printf$4) refers to usart.o(.text) for fputc
    printf4.o(i.__0printf$4) refers to stdout.o(.data) for __stdout
    printf4.o(i.__0snprintf$4) refers to printf4.o(i._printf_core) for _printf_core
    printf4.o(i.__0snprintf$4) refers to printf4.o(i._snputc) for _snputc
    printf4.o(i.__0sprintf$4) refers to printf4.o(i._printf_core) for _printf_core
    printf4.o(i.__0sprintf$4) refers to printf4.o(i._sputc) for _sputc
    printf4.o(i.__0vfprintf$4) refers to printf4.o(i._printf_core) for _printf_core
    printf4.o(i.__0vfprintf$4) refers to usart.o(.text) for fputc
    printf4.o(i.__0vprintf$4) refers to printf4.o(i._printf_core) for _printf_core
    printf4.o(i.__0vprintf$4) refers to usart.o(.text) for fputc
    printf4.o(i.__0vprintf$4) refers to stdout.o(.data) for __stdout
    printf4.o(i.__0vsnprintf$4) refers to printf4.o(i._printf_core) for _printf_core
    printf4.o(i.__0vsnprintf$4) refers to printf4.o(i._snputc) for _snputc
    printf4.o(i.__0vsprintf$4) refers to printf4.o(i._printf_core) for _printf_core
    printf4.o(i.__0vsprintf$4) refers to printf4.o(i._sputc) for _sputc
    printf4.o(i._printf_core) refers to uldiv.o(.text) for __aeabi_uldivmod
    printf5.o(i.__0fprintf$5) refers to printf5.o(i._printf_core) for _printf_core
    printf5.o(i.__0fprintf$5) refers to usart.o(.text) for fputc
    printf5.o(i.__0printf$5) refers to printf5.o(i._printf_core) for _printf_core
    printf5.o(i.__0printf$5) refers to usart.o(.text) for fputc
    printf5.o(i.__0printf$5) refers to stdout.o(.data) for __stdout
    printf5.o(i.__0snprintf$5) refers to printf5.o(i._printf_core) for _printf_core
    printf5.o(i.__0snprintf$5) refers to printf5.o(i._snputc) for _snputc
    printf5.o(i.__0sprintf$5) refers to printf5.o(i._printf_core) for _printf_core
    printf5.o(i.__0sprintf$5) refers to printf5.o(i._sputc) for _sputc
    printf5.o(i.__0vfprintf$5) refers to printf5.o(i._printf_core) for _printf_core
    printf5.o(i.__0vfprintf$5) refers to usart.o(.text) for fputc
    printf5.o(i.__0vprintf$5) refers to printf5.o(i._printf_core) for _printf_core
    printf5.o(i.__0vprintf$5) refers to usart.o(.text) for fputc
    printf5.o(i.__0vprintf$5) refers to stdout.o(.data) for __stdout
    printf5.o(i.__0vsnprintf$5) refers to printf5.o(i._printf_core) for _printf_core
    printf5.o(i.__0vsnprintf$5) refers to printf5.o(i._snputc) for _snputc
    printf5.o(i.__0vsprintf$5) refers to printf5.o(i._printf_core) for _printf_core
    printf5.o(i.__0vsprintf$5) refers to printf5.o(i._sputc) for _sputc
    printf5.o(i._printf_core) refers to uldiv.o(.text) for __aeabi_uldivmod
    printf6.o(i.__0fprintf$6) refers to printf6.o(i._printf_core) for _printf_core
    printf6.o(i.__0fprintf$6) refers to usart.o(.text) for fputc
    printf6.o(i.__0printf$6) refers to printf6.o(i._printf_core) for _printf_core
    printf6.o(i.__0printf$6) refers to usart.o(.text) for fputc
    printf6.o(i.__0printf$6) refers to stdout.o(.data) for __stdout
    printf6.o(i.__0snprintf$6) refers to printf6.o(i._printf_core) for _printf_core
    printf6.o(i.__0snprintf$6) refers to printf6.o(i._snputc) for _snputc
    printf6.o(i.__0sprintf$6) refers to printf6.o(i._printf_core) for _printf_core
    printf6.o(i.__0sprintf$6) refers to printf6.o(i._sputc) for _sputc
    printf6.o(i.__0vfprintf$6) refers to printf6.o(i._printf_core) for _printf_core
    printf6.o(i.__0vfprintf$6) refers to usart.o(.text) for fputc
    printf6.o(i.__0vprintf$6) refers to printf6.o(i._printf_core) for _printf_core
    printf6.o(i.__0vprintf$6) refers to usart.o(.text) for fputc
    printf6.o(i.__0vprintf$6) refers to stdout.o(.data) for __stdout
    printf6.o(i.__0vsnprintf$6) refers to printf6.o(i._printf_core) for _printf_core
    printf6.o(i.__0vsnprintf$6) refers to printf6.o(i._snputc) for _snputc
    printf6.o(i.__0vsprintf$6) refers to printf6.o(i._printf_core) for _printf_core
    printf6.o(i.__0vsprintf$6) refers to printf6.o(i._sputc) for _sputc
    printf6.o(i._printf_core) refers to printf6.o(i._printf_pre_padding) for _printf_pre_padding
    printf6.o(i._printf_core) refers to uidiv.o(.text) for __aeabi_uidivmod
    printf6.o(i._printf_core) refers to printf6.o(i._printf_post_padding) for _printf_post_padding
    printf7.o(i.__0fprintf$7) refers to printf7.o(i._printf_core) for _printf_core
    printf7.o(i.__0fprintf$7) refers to usart.o(.text) for fputc
    printf7.o(i.__0printf$7) refers to printf7.o(i._printf_core) for _printf_core
    printf7.o(i.__0printf$7) refers to usart.o(.text) for fputc
    printf7.o(i.__0printf$7) refers to stdout.o(.data) for __stdout
    printf7.o(i.__0snprintf$7) refers to printf7.o(i._printf_core) for _printf_core
    printf7.o(i.__0snprintf$7) refers to printf7.o(i._snputc) for _snputc
    printf7.o(i.__0sprintf$7) refers to printf7.o(i._printf_core) for _printf_core
    printf7.o(i.__0sprintf$7) refers to printf7.o(i._sputc) for _sputc
    printf7.o(i.__0vfprintf$7) refers to printf7.o(i._printf_core) for _printf_core
    printf7.o(i.__0vfprintf$7) refers to usart.o(.text) for fputc
    printf7.o(i.__0vprintf$7) refers to printf7.o(i._printf_core) for _printf_core
    printf7.o(i.__0vprintf$7) refers to usart.o(.text) for fputc
    printf7.o(i.__0vprintf$7) refers to stdout.o(.data) for __stdout
    printf7.o(i.__0vsnprintf$7) refers to printf7.o(i._printf_core) for _printf_core
    printf7.o(i.__0vsnprintf$7) refers to printf7.o(i._snputc) for _snputc
    printf7.o(i.__0vsprintf$7) refers to printf7.o(i._printf_core) for _printf_core
    printf7.o(i.__0vsprintf$7) refers to printf7.o(i._sputc) for _sputc
    printf7.o(i._printf_core) refers to printf7.o(i._printf_pre_padding) for _printf_pre_padding
    printf7.o(i._printf_core) refers to uldiv.o(.text) for __aeabi_uldivmod
    printf7.o(i._printf_core) refers to printf7.o(i._printf_post_padding) for _printf_post_padding
    printf8.o(i.__0fprintf$8) refers to printf8.o(i._printf_core) for _printf_core
    printf8.o(i.__0fprintf$8) refers to usart.o(.text) for fputc
    printf8.o(i.__0printf$8) refers to printf8.o(i._printf_core) for _printf_core
    printf8.o(i.__0printf$8) refers to usart.o(.text) for fputc
    printf8.o(i.__0printf$8) refers to stdout.o(.data) for __stdout
    printf8.o(i.__0snprintf$8) refers to printf8.o(i._printf_core) for _printf_core
    printf8.o(i.__0snprintf$8) refers to printf8.o(i._snputc) for _snputc
    printf8.o(i.__0sprintf$8) refers to printf8.o(i._printf_core) for _printf_core
    printf8.o(i.__0sprintf$8) refers to printf8.o(i._sputc) for _sputc
    printf8.o(i.__0vfprintf$8) refers to printf8.o(i._printf_core) for _printf_core
    printf8.o(i.__0vfprintf$8) refers to usart.o(.text) for fputc
    printf8.o(i.__0vprintf$8) refers to printf8.o(i._printf_core) for _printf_core
    printf8.o(i.__0vprintf$8) refers to usart.o(.text) for fputc
    printf8.o(i.__0vprintf$8) refers to stdout.o(.data) for __stdout
    printf8.o(i.__0vsnprintf$8) refers to printf8.o(i._printf_core) for _printf_core
    printf8.o(i.__0vsnprintf$8) refers to printf8.o(i._snputc) for _snputc
    printf8.o(i.__0vsprintf$8) refers to printf8.o(i._printf_core) for _printf_core
    printf8.o(i.__0vsprintf$8) refers to printf8.o(i._sputc) for _sputc
    printf8.o(i._printf_core) refers to printf8.o(i._printf_pre_padding) for _printf_pre_padding
    printf8.o(i._printf_core) refers to uldiv.o(.text) for __aeabi_uldivmod
    printf8.o(i._printf_core) refers to printf8.o(i._printf_post_padding) for _printf_post_padding
    printfa.o(i.__0fprintf) refers (Special) to iusefp.o(.text) for __I$use$fp
    printfa.o(i.__0fprintf) refers to printfa.o(i._printf_core) for _printf_core
    printfa.o(i.__0fprintf) refers to usart.o(.text) for fputc
    printfa.o(i.__0printf) refers (Special) to iusefp.o(.text) for __I$use$fp
    printfa.o(i.__0printf) refers to printfa.o(i._printf_core) for _printf_core
    printfa.o(i.__0printf) refers to usart.o(.text) for fputc
    printfa.o(i.__0printf) refers to stdout.o(.data) for __stdout
    printfa.o(i.__0snprintf) refers (Special) to iusefp.o(.text) for __I$use$fp
    printfa.o(i.__0snprintf) refers to printfa.o(i._printf_core) for _printf_core
    printfa.o(i.__0snprintf) refers to printfa.o(i._snputc) for _snputc
    printfa.o(i.__0sprintf) refers (Special) to iusefp.o(.text) for __I$use$fp
    printfa.o(i.__0sprintf) refers to printfa.o(i._printf_core) for _printf_core
    printfa.o(i.__0sprintf) refers to printfa.o(i._sputc) for _sputc
    printfa.o(i.__0vfprintf) refers (Special) to iusefp.o(.text) for __I$use$fp
    printfa.o(i.__0vfprintf) refers to printfa.o(i._printf_core) for _printf_core
    printfa.o(i.__0vfprintf) refers to usart.o(.text) for fputc
    printfa.o(i.__0vprintf) refers (Special) to iusefp.o(.text) for __I$use$fp
    printfa.o(i.__0vprintf) refers to printfa.o(i._printf_core) for _printf_core
    printfa.o(i.__0vprintf) refers to usart.o(.text) for fputc
    printfa.o(i.__0vprintf) refers to stdout.o(.data) for __stdout
    printfa.o(i.__0vsnprintf) refers (Special) to iusefp.o(.text) for __I$use$fp
    printfa.o(i.__0vsnprintf) refers to printfa.o(i._printf_core) for _printf_core
    printfa.o(i.__0vsnprintf) refers to printfa.o(i._snputc) for _snputc
    printfa.o(i.__0vsprintf) refers (Special) to iusefp.o(.text) for __I$use$fp
    printfa.o(i.__0vsprintf) refers to printfa.o(i._printf_core) for _printf_core
    printfa.o(i.__0vsprintf) refers to printfa.o(i._sputc) for _sputc
    printfa.o(i._fp_digits) refers (Special) to iusefp.o(.text) for __I$use$fp
    printfa.o(i._fp_digits) refers to dmul.o(.text) for __aeabi_dmul
    printfa.o(i._fp_digits) refers to ddiv.o(.text) for __aeabi_ddiv
    printfa.o(i._fp_digits) refers to cdrcmple.o(.text) for __aeabi_cdrcmple
    printfa.o(i._fp_digits) refers to dadd.o(.text) for __aeabi_dadd
    printfa.o(i._fp_digits) refers to dfixul.o(.text) for __aeabi_d2ulz
    printfa.o(i._fp_digits) refers to uldiv.o(.text) for __aeabi_uldivmod
    printfa.o(i._printf_core) refers (Special) to iusefp.o(.text) for __I$use$fp
    printfa.o(i._printf_core) refers to printfa.o(i._printf_pre_padding) for _printf_pre_padding
    printfa.o(i._printf_core) refers to uldiv.o(.text) for __aeabi_uldivmod
    printfa.o(i._printf_core) refers to printfa.o(i._printf_post_padding) for _printf_post_padding
    printfa.o(i._printf_core) refers to printfa.o(i._fp_digits) for _fp_digits
    printfa.o(i._printf_core) refers to uidiv.o(.text) for __aeabi_uidivmod
    printfa.o(i._printf_post_padding) refers (Special) to iusefp.o(.text) for __I$use$fp
    printfa.o(i._printf_pre_padding) refers (Special) to iusefp.o(.text) for __I$use$fp
    printfa.o(i._snputc) refers (Special) to iusefp.o(.text) for __I$use$fp
    printfa.o(i._sputc) refers (Special) to iusefp.o(.text) for __I$use$fp
    malloc.o(i.free) refers to mvars.o(.data) for __microlib_freelist
    malloc.o(i.malloc) refers to mvars.o(.data) for __microlib_freelist_initialised
    malloc.o(i.malloc) refers to mvars.o(.data) for __microlib_freelist
    malloc.o(i.malloc) refers to startup_stm32f10x_hd.o(HEAP) for __heap_base
    mallocr.o(i.__free$realloc) refers to mvars.o(.data) for __microlib_freelist
    mallocr.o(i.__malloc$realloc) refers to mallocr.o(i.internal_alloc) for internal_alloc
    mallocr.o(i.__malloc$realloc) refers to mvars.o(.data) for __microlib_freelist_initialised
    mallocr.o(i.__malloc$realloc) refers to startup_stm32f10x_hd.o(HEAP) for __heap_base
    mallocr.o(i.__malloc$realloc) refers to mvars.o(.data) for __microlib_freelist
    mallocr.o(i.internal_alloc) refers to memcpya.o(.text) for __aeabi_memcpy
    mallocr.o(i.internal_alloc) refers to mvars.o(.data) for __microlib_freelist
    mallocr.o(i.realloc) refers to mallocr.o(i.__free$realloc) for __free$realloc
    mallocr.o(i.realloc) refers to mallocr.o(i.internal_alloc) for internal_alloc
    mallocr.o(i.realloc) refers to mallocr.o(i.__malloc$realloc) for __malloc$realloc
    mallocr.o(i.realloc) refers to mvars.o(.data) for __microlib_freelist
    malloca.o(i.__aligned_malloc) refers to mvars.o(.data) for __microlib_freelist_initialised
    malloca.o(i.__aligned_malloc) refers to mvars.o(.data) for __microlib_freelist
    malloca.o(i.__aligned_malloc) refers to startup_stm32f10x_hd.o(HEAP) for __heap_base
    malloca.o(i.__free$memalign) refers to mvars.o(.data) for __microlib_freelist
    malloca.o(i.__malloc$memalign) refers to malloca.o(i.__aligned_malloc) for __aligned_malloc
    mallocra.o(i.__aligned_malloc$realloc) refers to mallocra.o(i.internal_alloc) for internal_alloc
    mallocra.o(i.__aligned_malloc$realloc) refers to mvars.o(.data) for __microlib_freelist_initialised
    mallocra.o(i.__aligned_malloc$realloc) refers to startup_stm32f10x_hd.o(HEAP) for __heap_base
    mallocra.o(i.__aligned_malloc$realloc) refers to mvars.o(.data) for __microlib_freelist
    mallocra.o(i.__free$realloc$memalign) refers to mvars.o(.data) for __microlib_freelist
    mallocra.o(i.__malloc$realloc$memalign) refers to mallocra.o(i.__aligned_malloc$realloc) for __aligned_malloc$realloc
    mallocra.o(i.__realloc$memalign) refers to mallocra.o(i.__free$realloc$memalign) for __free$realloc$memalign
    mallocra.o(i.__realloc$memalign) refers to mallocra.o(i.internal_alloc) for internal_alloc
    mallocra.o(i.__realloc$memalign) refers to mallocra.o(i.__malloc$realloc$memalign) for __malloc$realloc$memalign
    mallocra.o(i.__realloc$memalign) refers to mvars.o(.data) for __microlib_freelist
    mallocra.o(i.internal_alloc) refers to memcpya.o(.text) for __aeabi_memcpy
    mallocra.o(i.internal_alloc) refers to mvars.o(.data) for __microlib_freelist
    entry2.o(.ARM.Collect$$$$00000001) refers to entry2.o(.ARM.Collect$$$$00002712) for __lit__00000000
    entry2.o(.ARM.Collect$$$$00002712) refers to startup_stm32f10x_hd.o(STACK) for __initial_sp
    entry2.o(__vectab_stack_and_reset_area) refers to startup_stm32f10x_hd.o(STACK) for __initial_sp
    entry2.o(__vectab_stack_and_reset_area) refers to entry.o(.ARM.Collect$$$$00000000) for __main
    entry5.o(.ARM.Collect$$$$00000004) refers to init.o(.text) for __scatterload
    entry9a.o(.ARM.Collect$$$$0000000B) refers to main.o(.text) for main
    entry9b.o(.ARM.Collect$$$$0000000C) refers to main.o(.text) for main
    uldiv.o(.text) refers to llushr.o(.text) for __aeabi_llsr
    uldiv.o(.text) refers to llshl.o(.text) for __aeabi_llsl
    dadd.o(.text) refers to llshl.o(.text) for __aeabi_llsl
    dadd.o(.text) refers to llsshr.o(.text) for __aeabi_lasr
    dadd.o(.text) refers to depilogue.o(.text) for _double_epilogue
    dmul.o(.text) refers to depilogue.o(.text) for _double_epilogue
    ddiv.o(.text) refers to depilogue.o(.text) for _double_round
    dfixul.o(.text) refers to llushr.o(.text) for __aeabi_llsr
    dfixul.o(.text) refers to llshl.o(.text) for __aeabi_llsl
    init.o(.text) refers to entry5.o(.ARM.Collect$$$$00000004) for __main_after_scatterload
    depilogue.o(.text) refers to llshl.o(.text) for __aeabi_llsl
    depilogue.o(.text) refers to llushr.o(.text) for __aeabi_llsr


==============================================================================

Removing Unused input sections from the image.

    Removing stm32f10x_it.o(.data), (4 bytes).
    Removing ra8876_demo.o(.text), (14220 bytes).
    Removing ra8876_demo.o(.constdata), (26344 bytes).
    Removing ra8876_demo.o(.conststring), (255 bytes).
    Removing ra8876_demo.o(.data), (4 bytes).
    Removing stm32f10x_bkp.o(.text), (172 bytes).
    Removing stm32f10x_pwr.o(.text), (192 bytes).
    Removing stm32f10x_rtc.o(.text), (328 bytes).
    Removing asc16.o(.constdata), (4096 bytes).
    Removing hz16.o(.constdata), (36 bytes).
    Removing core_cm3.o(.emb_text), (32 bytes).
    Removing system_stm32f10x.o(.constdata), (20 bytes).
    Removing fat.o(.bss), (512 bytes).
    Removing fat.o(.data), (1 bytes).
    Removing fat.o(.data), (4 bytes).

15 unused section(s) (total 46220 bytes) removed from the image.

==============================================================================

Image Symbol Table

    Local Symbols

    Symbol Name                              Value     Ov Type        Size  Object(Section)

    ../clib/../cmprslib/zerorunl2.c          0x00000000   Number         0  __dczerorl2.o ABSOLUTE
    ../clib/microlib/division.c              0x00000000   Number         0  uldiv.o ABSOLUTE
    ../clib/microlib/division.c              0x00000000   Number         0  uidiv.o ABSOLUTE
    ../clib/microlib/init/entry.s            0x00000000   Number         0  entry10a.o ABSOLUTE
    ../clib/microlib/init/entry.s            0x00000000   Number         0  entry11b.o ABSOLUTE
    ../clib/microlib/init/entry.s            0x00000000   Number         0  entry11a.o ABSOLUTE
    ../clib/microlib/init/entry.s            0x00000000   Number         0  entry8a.o ABSOLUTE
    ../clib/microlib/init/entry.s            0x00000000   Number         0  entry.o ABSOLUTE
    ../clib/microlib/init/entry.s            0x00000000   Number         0  entry2.o ABSOLUTE
    ../clib/microlib/init/entry.s            0x00000000   Number         0  entry5.o ABSOLUTE
    ../clib/microlib/init/entry.s            0x00000000   Number         0  entry7a.o ABSOLUTE
    ../clib/microlib/init/entry.s            0x00000000   Number         0  entry7b.o ABSOLUTE
    ../clib/microlib/init/entry.s            0x00000000   Number         0  entry8b.o ABSOLUTE
    ../clib/microlib/init/entry.s            0x00000000   Number         0  entry9a.o ABSOLUTE
    ../clib/microlib/init/entry.s            0x00000000   Number         0  entry9b.o ABSOLUTE
    ../clib/microlib/init/entry.s            0x00000000   Number         0  entry10b.o ABSOLUTE
    ../clib/microlib/longlong.c              0x00000000   Number         0  llsshr.o ABSOLUTE
    ../clib/microlib/longlong.c              0x00000000   Number         0  llushr.o ABSOLUTE
    ../clib/microlib/longlong.c              0x00000000   Number         0  llshl.o ABSOLUTE
    ../clib/microlib/malloc/malloc.c         0x00000000   Number         0  malloca.o ABSOLUTE
    ../clib/microlib/malloc/malloc.c         0x00000000   Number         0  mallocra.o ABSOLUTE
    ../clib/microlib/malloc/malloc.c         0x00000000   Number         0  malloc.o ABSOLUTE
    ../clib/microlib/malloc/malloc.c         0x00000000   Number         0  mallocr.o ABSOLUTE
    ../clib/microlib/malloc/mvars.c          0x00000000   Number         0  mvars.o ABSOLUTE
    ../clib/microlib/printf/printf.c         0x00000000   Number         0  printf2.o ABSOLUTE
    ../clib/microlib/printf/printf.c         0x00000000   Number         0  printf8.o ABSOLUTE
    ../clib/microlib/printf/printf.c         0x00000000   Number         0  printf6.o ABSOLUTE
    ../clib/microlib/printf/printf.c         0x00000000   Number         0  printf1.o ABSOLUTE
    ../clib/microlib/printf/printf.c         0x00000000   Number         0  printfb.o ABSOLUTE
    ../clib/microlib/printf/printf.c         0x00000000   Number         0  printf5.o ABSOLUTE
    ../clib/microlib/printf/printf.c         0x00000000   Number         0  printfa.o ABSOLUTE
    ../clib/microlib/printf/printf.c         0x00000000   Number         0  printf7.o ABSOLUTE
    ../clib/microlib/printf/printf.c         0x00000000   Number         0  printf4.o ABSOLUTE
    ../clib/microlib/printf/printf.c         0x00000000   Number         0  printf3.o ABSOLUTE
    ../clib/microlib/printf/printf.c         0x00000000   Number         0  printf0.o ABSOLUTE
    ../clib/microlib/printf/stubs.s          0x00000000   Number         0  stubs.o ABSOLUTE
    ../clib/microlib/stdio/streams.c         0x00000000   Number         0  stdout.o ABSOLUTE
    ../clib/microlib/stdlib/rand.c           0x00000000   Number         0  rand.o ABSOLUTE
    ../clib/microlib/string/memcpy.c         0x00000000   Number         0  memcpya.o ABSOLUTE
    ../clib/microlib/string/memcpy.c         0x00000000   Number         0  memcpyb.o ABSOLUTE
    ../clib/microlib/string/memset.c         0x00000000   Number         0  memseta.o ABSOLUTE
    ../clib/microlib/stubs.s                 0x00000000   Number         0  iusefp.o ABSOLUTE
    ../fplib/microlib/fpadd.c                0x00000000   Number         0  dadd.o ABSOLUTE
    ../fplib/microlib/fpdiv.c                0x00000000   Number         0  ddiv.o ABSOLUTE
    ../fplib/microlib/fpepilogue.c           0x00000000   Number         0  depilogue.o ABSOLUTE
    ../fplib/microlib/fpfix.c                0x00000000   Number         0  dfixul.o ABSOLUTE
    ../fplib/microlib/fpmul.c                0x00000000   Number         0  dmul.o ABSOLUTE
    CMSIS\\core_cm3.c                        0x00000000   Number         0  core_cm3.o ABSOLUTE
    CMSIS\core_cm3.c                         0x00000000   Number         0  core_cm3.o ABSOLUTE
    CMSIS\system_stm32f10x.c                 0x00000000   Number         0  system_stm32f10x.o ABSOLUTE
    Code\lcd\24x48.c                         0x00000000   Number         0  24x48.o ABSOLUTE
    Code\lcd\RA8876.c                        0x00000000   Number         0  ra8876.o ABSOLUTE
    Code\lcd\asc16.c                         0x00000000   Number         0  asc16.o ABSOLUTE
    Code\lcd\gb4848.c                        0x00000000   Number         0  gb4848.o ABSOLUTE
    Code\lcd\hz16.c                          0x00000000   Number         0  hz16.o ABSOLUTE
    Code\lcd\lcd.c                           0x00000000   Number         0  lcd.o ABSOLUTE
    FWlib\SRC\misc.c                         0x00000000   Number         0  misc.o ABSOLUTE
    FWlib\SRC\stm32f10x_bkp.c                0x00000000   Number         0  stm32f10x_bkp.o ABSOLUTE
    FWlib\SRC\stm32f10x_dma.c                0x00000000   Number         0  stm32f10x_dma.o ABSOLUTE
    FWlib\SRC\stm32f10x_exti.c               0x00000000   Number         0  stm32f10x_exti.o ABSOLUTE
    FWlib\SRC\stm32f10x_fsmc.c               0x00000000   Number         0  stm32f10x_fsmc.o ABSOLUTE
    FWlib\SRC\stm32f10x_gpio.c               0x00000000   Number         0  stm32f10x_gpio.o ABSOLUTE
    FWlib\SRC\stm32f10x_pwr.c                0x00000000   Number         0  stm32f10x_pwr.o ABSOLUTE
    FWlib\SRC\stm32f10x_rcc.c                0x00000000   Number         0  stm32f10x_rcc.o ABSOLUTE
    FWlib\SRC\stm32f10x_rtc.c                0x00000000   Number         0  stm32f10x_rtc.o ABSOLUTE
    FWlib\SRC\stm32f10x_sdio.c               0x00000000   Number         0  stm32f10x_sdio.o ABSOLUTE
    FWlib\SRC\stm32f10x_spi.c                0x00000000   Number         0  stm32f10x_spi.o ABSOLUTE
    FWlib\SRC\stm32f10x_tim.c                0x00000000   Number         0  stm32f10x_tim.o ABSOLUTE
    FWlib\SRC\stm32f10x_usart.c              0x00000000   Number         0  stm32f10x_usart.o ABSOLUTE
    cdrcmple.s                               0x00000000   Number         0  cdrcmple.o ABSOLUTE
    dc.s                                     0x00000000   Number         0  dc.o ABSOLUTE
    handlers.s                               0x00000000   Number         0  handlers.o ABSOLUTE
    init.s                                   0x00000000   Number         0  init.o ABSOLUTE
    project\FAT.c                            0x00000000   Number         0  fat.o ABSOLUTE
    project\sdcard.c                         0x00000000   Number         0  sdcard.o ABSOLUTE
    startup\startup_stm32f10x_hd.s           0x00000000   Number         0  startup_stm32f10x_hd.o ABSOLUTE
    user\GT9271.c                            0x00000000   Number         0  gt9271.o ABSOLUTE
    user\IIC_current.c                       0x00000000   Number         0  iic_current.o ABSOLUTE
    user\LCD1602.c                           0x00000000   Number         0  lcd1602.o ABSOLUTE
    user\SPI_Flash.c                         0x00000000   Number         0  spi_flash.o ABSOLUTE
    user\config_hard.c                       0x00000000   Number         0  config_hard.o ABSOLUTE
    user\delay.c                             0x00000000   Number         0  delay.o ABSOLUTE
    user\disp.c                              0x00000000   Number         0  disp.o ABSOLUTE
    user\fsmc_sram.c                         0x00000000   Number         0  fsmc_sram.o ABSOLUTE
    user\main.c                              0x00000000   Number         0  main.o ABSOLUTE
    user\ra8876_demo.c                       0x00000000   Number         0  ra8876_demo.o ABSOLUTE
    user\stm32f10x_it.c                      0x00000000   Number         0  stm32f10x_it.o ABSOLUTE
    user\usart.c                             0x00000000   Number         0  usart.o ABSOLUTE
    RESET                                    0x08000000   Section      304  startup_stm32f10x_hd.o(RESET)
    .ARM.Collect$$$$00000000                 0x08000130   Section        0  entry.o(.ARM.Collect$$$$00000000)
    .ARM.Collect$$$$00000001                 0x08000130   Section        4  entry2.o(.ARM.Collect$$$$00000001)
    .ARM.Collect$$$$00000004                 0x08000134   Section        4  entry5.o(.ARM.Collect$$$$00000004)
    .ARM.Collect$$$$00000008                 0x08000138   Section        0  entry7b.o(.ARM.Collect$$$$00000008)
    .ARM.Collect$$$$0000000A                 0x08000138   Section        0  entry8b.o(.ARM.Collect$$$$0000000A)
    .ARM.Collect$$$$0000000B                 0x08000138   Section        8  entry9a.o(.ARM.Collect$$$$0000000B)
    .ARM.Collect$$$$0000000D                 0x08000140   Section        0  entry10a.o(.ARM.Collect$$$$0000000D)
    .ARM.Collect$$$$0000000F                 0x08000140   Section        0  entry11a.o(.ARM.Collect$$$$0000000F)
    .ARM.Collect$$$$00002712                 0x08000140   Section        4  entry2.o(.ARM.Collect$$$$00002712)
    __lit__00000000                          0x08000140   Data           4  entry2.o(.ARM.Collect$$$$00002712)
    .text                                    0x08000144   Section        0  fsmc_sram.o(.text)
    .text                                    0x08000204   Section        0  main.o(.text)
    .text                                    0x08001260   Section        0  stm32f10x_it.o(.text)
    .text                                    0x0800128c   Section        0  delay.o(.text)
    .text                                    0x08001354   Section        0  spi_flash.o(.text)
    .text                                    0x08001aa8   Section        0  usart.o(.text)
    .text                                    0x08001b84   Section        0  config_hard.o(.text)
    .text                                    0x08004428   Section        0  disp.o(.text)
    .text                                    0x08004610   Section        0  lcd1602.o(.text)
    .text                                    0x08004a40   Section        0  gt9271.o(.text)
    .text                                    0x08005b78   Section        0  iic_current.o(.text)
    .text                                    0x08006038   Section        0  misc.o(.text)
    .text                                    0x08006114   Section        0  stm32f10x_exti.o(.text)
    .text                                    0x08006254   Section        0  stm32f10x_fsmc.o(.text)
    .text                                    0x08006858   Section        0  stm32f10x_gpio.o(.text)
    .text                                    0x08006b88   Section        0  stm32f10x_rcc.o(.text)
    .text                                    0x08006f28   Section        0  stm32f10x_usart.o(.text)
    .text                                    0x08007298   Section        0  stm32f10x_spi.o(.text)
    .text                                    0x08007598   Section        0  stm32f10x_dma.o(.text)
    .text                                    0x080077d8   Section        0  stm32f10x_sdio.o(.text)
    .text                                    0x080079a0   Section        0  stm32f10x_tim.o(.text)
    TI4_Config                               0x08007cbf   Thumb Code    82  stm32f10x_tim.o(.text)
    TI3_Config                               0x08007d23   Thumb Code    72  stm32f10x_tim.o(.text)
    TI2_Config                               0x08007d95   Thumb Code    80  stm32f10x_tim.o(.text)
    TI1_Config                               0x08007df7   Thumb Code    56  stm32f10x_tim.o(.text)
    .text                                    0x08008568   Section       48  startup_stm32f10x_hd.o(.text)
    .text                                    0x08008598   Section        0  ra8876.o(.text)
    .text                                    0x0800b724   Section        0  lcd.o(.text)
    .text                                    0x0800c174   Section        0  system_stm32f10x.o(.text)
    SetSysClockTo72                          0x0800c175   Thumb Code   220  system_stm32f10x.o(.text)
    SetSysClock                              0x0800c251   Thumb Code     8  system_stm32f10x.o(.text)
    .text                                    0x0800c2ac   Section        0  sdcard.o(.text)
    CmdResp1Error                            0x0800c461   Thumb Code   296  sdcard.o(.text)
    SDEnWideBus                              0x0800ca67   Thumb Code   548  sdcard.o(.text)
    IsCardProgramming                        0x0800d255   Thumb Code   364  sdcard.o(.text)
    .text                                    0x0800dfe8   Section        0  fat.o(.text)
    .text                                    0x0800fb68   Section        0  memcpya.o(.text)
    .text                                    0x0800fb8c   Section        0  memseta.o(.text)
    .text                                    0x0800fbb0   Section        0  uidiv.o(.text)
    .text                                    0x0800fbdc   Section        0  uldiv.o(.text)
    .text                                    0x0800fc3e   Section        0  iusefp.o(.text)
    .text                                    0x0800fc3e   Section        0  dadd.o(.text)
    .text                                    0x0800fd8c   Section        0  dmul.o(.text)
    .text                                    0x0800fe70   Section        0  ddiv.o(.text)
    .text                                    0x0800ff4e   Section        0  dfixul.o(.text)
    .text                                    0x0800ff80   Section       48  cdrcmple.o(.text)
    .text                                    0x0800ffb0   Section       36  init.o(.text)
    .text                                    0x0800ffd4   Section        0  llshl.o(.text)
    .text                                    0x0800fff2   Section        0  llushr.o(.text)
    .text                                    0x08010012   Section        0  llsshr.o(.text)
    .text                                    0x08010036   Section        0  depilogue.o(.text)
    .text                                    0x080100f0   Section        0  __dczerorl2.o(.text)
    i.__0printf$1                            0x08010148   Section        0  printf1.o(i.__0printf$1)
    i.__0vsprintf                            0x08010168   Section        0  printfa.o(i.__0vsprintf)
    i.__ARM_common_memset4_12                0x0801018c   Section        0  fat.o(i.__ARM_common_memset4_12)
    i.__scatterload_copy                     0x0801019e   Section       14  handlers.o(i.__scatterload_copy)
    i.__scatterload_null                     0x080101ac   Section        2  handlers.o(i.__scatterload_null)
    i.__scatterload_zeroinit                 0x080101ae   Section       14  handlers.o(i.__scatterload_zeroinit)
    i._fp_digits                             0x080101bc   Section        0  printfa.o(i._fp_digits)
    _fp_digits                               0x080101bd   Thumb Code   334  printfa.o(i._fp_digits)
    i._printf_core                           0x08010320   Section        0  printf1.o(i._printf_core)
    _printf_core                             0x08010321   Thumb Code   336  printf1.o(i._printf_core)
    i._printf_core                           0x08010474   Section        0  printfa.o(i._printf_core)
    _printf_core                             0x08010475   Thumb Code  1744  printfa.o(i._printf_core)
    i._printf_post_padding                   0x08010b50   Section        0  printfa.o(i._printf_post_padding)
    _printf_post_padding                     0x08010b51   Thumb Code    36  printfa.o(i._printf_post_padding)
    i._printf_pre_padding                    0x08010b74   Section        0  printfa.o(i._printf_pre_padding)
    _printf_pre_padding                      0x08010b75   Thumb Code    46  printfa.o(i._printf_pre_padding)
    i._sputc                                 0x08010ba2   Section        0  printfa.o(i._sputc)
    _sputc                                   0x08010ba3   Thumb Code    10  printfa.o(i._sputc)
    i.free                                   0x08010bac   Section        0  malloc.o(i.free)
    i.malloc                                 0x08010bfc   Section        0  malloc.o(i.malloc)
    .constdata                               0x08010c68   Section      374  gt9271.o(.constdata)
    .constdata                               0x08010dde   Section     4560  lcd.o(.constdata)
    .constdata                               0x08011fae   Section     3190  gb4848.o(.constdata)
    .constdata                               0x08012c24   Section     1450  24x48.o(.constdata)
    .data                                    0x20000000   Section       48  main.o(.data)
    fac_us                                   0x20000000   Data           1  main.o(.data)
    fac_ms                                   0x20000002   Data           2  main.o(.data)
    .data                                    0x20000030   Section        4  delay.o(.data)
    fac_us                                   0x20000030   Data           1  delay.o(.data)
    fac_ms                                   0x20000032   Data           2  delay.o(.data)
    .data                                    0x20000034   Section       26  spi_flash.o(.data)
    fac_us                                   0x20000034   Data           1  spi_flash.o(.data)
    fac_ms                                   0x20000036   Data           2  spi_flash.o(.data)
    .data                                    0x2000004e   Section      676  config_hard.o(.data)
    fac_us                                   0x2000004e   Data           1  config_hard.o(.data)
    fac_ms                                   0x20000050   Data           2  config_hard.o(.data)
    .data                                    0x200002f2   Section        4  disp.o(.data)
    .data                                    0x200002f6   Section       60  gt9271.o(.data)
    fac_us                                   0x200002f6   Data           1  gt9271.o(.data)
    fac_ms                                   0x200002f8   Data           2  gt9271.o(.data)
    .data                                    0x20000332   Section        6  iic_current.o(.data)
    .data                                    0x20000338   Section       20  stm32f10x_rcc.o(.data)
    APBAHBPrescTable                         0x20000338   Data          16  stm32f10x_rcc.o(.data)
    ADCPrescTable                            0x20000348   Data           4  stm32f10x_rcc.o(.data)
    .data                                    0x2000034c   Section        6  ra8876.o(.data)
    fac_us                                   0x2000034c   Data           1  ra8876.o(.data)
    fac_ms                                   0x2000034e   Data           2  ra8876.o(.data)
    .data                                    0x20000352   Section        8  lcd.o(.data)
    fac_us                                   0x20000352   Data           1  lcd.o(.data)
    fac_ms                                   0x20000354   Data           2  lcd.o(.data)
    TextColor                                0x20000356   Data           2  lcd.o(.data)
    BackColor                                0x20000358   Data           2  lcd.o(.data)
    .data                                    0x2000035c   Section       40  sdcard.o(.data)
    CardType                                 0x20000360   Data           4  sdcard.o(.data)
    RCA                                      0x20000364   Data           4  sdcard.o(.data)
    DeviceMode                               0x20000368   Data           4  sdcard.o(.data)
    TotalNumberOfBytes                       0x2000036c   Data           4  sdcard.o(.data)
    StopCondition                            0x20000370   Data           4  sdcard.o(.data)
    .data                                    0x20000384   Section       36  fat.o(.data)
    .data                                    0x200003a8   Section        4  stdout.o(.data)
    .data                                    0x200003ac   Section        4  mvars.o(.data)
    .data                                    0x200003b0   Section        4  mvars.o(.data)
    .bss                                     0x200003b4   Section     8216  main.o(.bss)
    .bss                                     0x200023cc   Section     8192  spi_flash.o(.bss)
    .bss                                     0x200043cc   Section      328  config_hard.o(.bss)
    .bss                                     0x20004514   Section       32  disp.o(.bss)
    .bss                                     0x20004534   Section     4688  gt9271.o(.bss)
    .bss                                     0x200057c0   Section      100  sdcard.o(.bss)
    CSD_Tab                                  0x200057c0   Data          16  sdcard.o(.bss)
    CID_Tab                                  0x200057d0   Data          16  sdcard.o(.bss)
    .bss                                     0x20005840   Section     1171  fat.o(.bss)
    HEAP                                     0x20005cd8   Section     1024  startup_stm32f10x_hd.o(HEAP)
    STACK                                    0x200060d8   Section     4096  startup_stm32f10x_hd.o(STACK)

    Global Symbols

    Symbol Name                              Value     Ov Type        Size  Object(Section)

    BuildAttributes$$THM_ISAv4$P$D$K$B$S$PE$A:L22UL41UL21$X:L11$S22US41US21$IEEE1$IW$USESV6$~STKCKD$USESV7$~SHL$OTIME$ROPI$EBA8$MICROLIB$REQ8$PRES8$EABIv2 0x00000000   Number         0  anon$$obj.o ABSOLUTE
    __ARM_use_no_argv                        0x00000000   Number         0  main.o ABSOLUTE
    _printf_a                                0x00000000   Number         0  stubs.o ABSOLUTE
    _printf_c                                0x00000000   Number         0  stubs.o ABSOLUTE
    _printf_charcount                        0x00000000   Number         0  stubs.o ABSOLUTE
    _printf_d                                0x00000000   Number         0  stubs.o ABSOLUTE
    _printf_e                                0x00000000   Number         0  stubs.o ABSOLUTE
    _printf_f                                0x00000000   Number         0  stubs.o ABSOLUTE
    _printf_flags                            0x00000000   Number         0  stubs.o ABSOLUTE
    _printf_fp_dec                           0x00000000   Number         0  stubs.o ABSOLUTE
    _printf_fp_hex                           0x00000000   Number         0  stubs.o ABSOLUTE
    _printf_g                                0x00000000   Number         0  stubs.o ABSOLUTE
    _printf_i                                0x00000000   Number         0  stubs.o ABSOLUTE
    _printf_int_dec                          0x00000000   Number         0  stubs.o ABSOLUTE
    _printf_l                                0x00000000   Number         0  stubs.o ABSOLUTE
    _printf_lc                               0x00000000   Number         0  stubs.o ABSOLUTE
    _printf_ll                               0x00000000   Number         0  stubs.o ABSOLUTE
    _printf_lld                              0x00000000   Number         0  stubs.o ABSOLUTE
    _printf_lli                              0x00000000   Number         0  stubs.o ABSOLUTE
    _printf_llo                              0x00000000   Number         0  stubs.o ABSOLUTE
    _printf_llu                              0x00000000   Number         0  stubs.o ABSOLUTE
    _printf_llx                              0x00000000   Number         0  stubs.o ABSOLUTE
    _printf_longlong_dec                     0x00000000   Number         0  stubs.o ABSOLUTE
    _printf_longlong_hex                     0x00000000   Number         0  stubs.o ABSOLUTE
    _printf_longlong_oct                     0x00000000   Number         0  stubs.o ABSOLUTE
    _printf_ls                               0x00000000   Number         0  stubs.o ABSOLUTE
    _printf_mbtowc                           0x00000000   Number         0  stubs.o ABSOLUTE
    _printf_n                                0x00000000   Number         0  stubs.o ABSOLUTE
    _printf_o                                0x00000000   Number         0  stubs.o ABSOLUTE
    _printf_p                                0x00000000   Number         0  stubs.o ABSOLUTE
    _printf_percent                          0x00000000   Number         0  stubs.o ABSOLUTE
    _printf_pre_padding                      0x00000000   Number         0  stubs.o ABSOLUTE
    _printf_return_value                     0x00000000   Number         0  stubs.o ABSOLUTE
    _printf_s                                0x00000000   Number         0  stubs.o ABSOLUTE
    _printf_sizespec                         0x00000000   Number         0  stubs.o ABSOLUTE
    _printf_str                              0x00000000   Number         0  stubs.o ABSOLUTE
    _printf_truncate_signed                  0x00000000   Number         0  stubs.o ABSOLUTE
    _printf_truncate_unsigned                0x00000000   Number         0  stubs.o ABSOLUTE
    _printf_u                                0x00000000   Number         0  stubs.o ABSOLUTE
    _printf_wc                               0x00000000   Number         0  stubs.o ABSOLUTE
    _printf_wctomb                           0x00000000   Number         0  stubs.o ABSOLUTE
    _printf_widthprec                        0x00000000   Number         0  stubs.o ABSOLUTE
    _printf_x                                0x00000000   Number         0  stubs.o ABSOLUTE
    __cpp_initialize__aeabi_                  - Undefined Weak Reference
    __cxa_finalize                            - Undefined Weak Reference
    _clock_init                               - Undefined Weak Reference
    _microlib_exit                            - Undefined Weak Reference
    __Vectors_Size                           0x00000130   Number         0  startup_stm32f10x_hd.o ABSOLUTE
    __Vectors                                0x08000000   Data           4  startup_stm32f10x_hd.o(RESET)
    __Vectors_End                            0x08000130   Data           0  startup_stm32f10x_hd.o(RESET)
    __main                                   0x08000131   Thumb Code     0  entry.o(.ARM.Collect$$$$00000000)
    _main_stk                                0x08000131   Thumb Code     0  entry2.o(.ARM.Collect$$$$00000001)
    _main_scatterload                        0x08000135   Thumb Code     0  entry5.o(.ARM.Collect$$$$00000004)
    __main_after_scatterload                 0x08000139   Thumb Code     0  entry5.o(.ARM.Collect$$$$00000004)
    _main_clock                              0x08000139   Thumb Code     0  entry7b.o(.ARM.Collect$$$$00000008)
    _main_cpp_init                           0x08000139   Thumb Code     0  entry8b.o(.ARM.Collect$$$$0000000A)
    _main_init                               0x08000139   Thumb Code     0  entry9a.o(.ARM.Collect$$$$0000000B)
    __rt_final_cpp                           0x08000141   Thumb Code     0  entry10a.o(.ARM.Collect$$$$0000000D)
    __rt_final_exit                          0x08000141   Thumb Code     0  entry11a.o(.ARM.Collect$$$$0000000F)
    FSMC_LCD_Init_L                          0x08000145   Thumb Code    94  fsmc_sram.o(.text)
    FSMC_LCD_Init_H                          0x080001a3   Thumb Code    96  fsmc_sram.o(.text)
    PassKey                                  0x08000205   Thumb Code   574  main.o(.text)
    PIP_SWITCH                               0x08000443   Thumb Code    76  main.o(.text)
    SCAN_KEY_ON                              0x0800048f   Thumb Code    62  main.o(.text)
    SDPicShow                                0x080004cd   Thumb Code    66  main.o(.text)
    GET_PIC_MAX_NUM                          0x0800050f   Thumb Code    46  main.o(.text)
    EXTI_Configuration_only_key              0x0800053d   Thumb Code    42  main.o(.text)
    NVIC_Configuration_only_key              0x08000567   Thumb Code    32  main.o(.text)
    KEY_GPIO_Configuration                   0x08000587   Thumb Code    86  main.o(.text)
    EXTI_Configuration_only_key_DISABLE      0x080005dd   Thumb Code   128  main.o(.text)
    EXTI_Configuration                       0x0800065d   Thumb Code    40  main.o(.text)
    NVIC_Configuration                       0x08000685   Thumb Code    80  main.o(.text)
    GPIO_Configuration                       0x080006d5   Thumb Code   270  main.o(.text)
    RCC_Configuration                        0x080007e3   Thumb Code    34  main.o(.text)
    main                                     0x08000805   Thumb Code  1928  main.o(.text)
    detect_button_B1                         0x08000f8d   Thumb Code   184  main.o(.text)
    detect_button_B2                         0x08001045   Thumb Code    44  main.o(.text)
    D3_timer3_ini_PWM_enable                 0x08001071   Thumb Code   140  main.o(.text)
    D3_timer3_ini_PWM_disable                0x080010fd   Thumb Code    48  main.o(.text)
    D4_timer3_ini_PWM_enable                 0x0800112d   Thumb Code   140  main.o(.text)
    D4_timer3_ini_PWM_disable                0x080011b9   Thumb Code    48  main.o(.text)
    EXTI13_IRQHandler                        0x080011e9   Thumb Code    92  main.o(.text)
    NMI_Handler                              0x08001261   Thumb Code     2  stm32f10x_it.o(.text)
    HardFault_Handler                        0x08001263   Thumb Code     4  stm32f10x_it.o(.text)
    MemManage_Handler                        0x08001267   Thumb Code     4  stm32f10x_it.o(.text)
    BusFault_Handler                         0x0800126b   Thumb Code     4  stm32f10x_it.o(.text)
    UsageFault_Handler                       0x0800126f   Thumb Code     4  stm32f10x_it.o(.text)
    SVC_Handler                              0x08001273   Thumb Code     2  stm32f10x_it.o(.text)
    DebugMon_Handler                         0x08001275   Thumb Code     2  stm32f10x_it.o(.text)
    PendSV_Handler                           0x08001277   Thumb Code     2  stm32f10x_it.o(.text)
    SysTick_Handler                          0x08001279   Thumb Code     2  stm32f10x_it.o(.text)
    EXTI15_10_IRQHandler                     0x0800127b   Thumb Code     8  stm32f10x_it.o(.text)
    SDIO_IRQHandler                          0x08001283   Thumb Code     8  stm32f10x_it.o(.text)
    delay_init                               0x0800128d   Thumb Code    56  delay.o(.text)
    delay_ms                                 0x080012c5   Thumb Code    56  delay.o(.text)
    delay_us                                 0x080012fd   Thumb Code    56  delay.o(.text)
    delay_seconds                            0x08001335   Thumb Code    24  delay.o(.text)
    SPI_Peripheral_Init                      0x08001355   Thumb Code   164  spi_flash.o(.text)
    SPI_Peripheral_SendByte                  0x080013f9   Thumb Code    50  spi_flash.o(.text)
    SPI_Peripheral_ReadByte                  0x0800142b   Thumb Code    10  spi_flash.o(.text)
    WREN                                     0x08001435   Thumb Code    26  spi_flash.o(.text)
    WRDI                                     0x0800144f   Thumb Code    26  spi_flash.o(.text)
    WRSR                                     0x08001469   Thumb Code    38  spi_flash.o(.text)
    RDSR                                     0x0800148f   Thumb Code    34  spi_flash.o(.text)
    WIP                                      0x080014b1   Thumb Code    22  spi_flash.o(.text)
    WEL                                      0x080014c7   Thumb Code    24  spi_flash.o(.text)
    WRITE_DATA_BYTE                          0x080014df   Thumb Code    82  spi_flash.o(.text)
    WRITE_DATA_PAGE                          0x08001531   Thumb Code    94  spi_flash.o(.text)
    READ_DATA_BYTE                           0x0800158f   Thumb Code    58  spi_flash.o(.text)
    CHIP_ERASE                               0x080015c9   Thumb Code    26  spi_flash.o(.text)
    FLASH_ERASE                              0x080015e3   Thumb Code    94  spi_flash.o(.text)
    FLASH_PROGRAM                            0x08001641   Thumb Code    16  spi_flash.o(.text)
    SPI_Flash_SendByte                       0x08001651   Thumb Code    74  spi_flash.o(.text)
    SPI_Flash_Write_Enable                   0x0800169b   Thumb Code    18  spi_flash.o(.text)
    SPI_Flash_WaitForWriteEnd                0x080016ad   Thumb Code    14  spi_flash.o(.text)
    SPI_Flash_ReadByte                       0x080016bb   Thumb Code    10  spi_flash.o(.text)
    W25X_FLASH_CS_LOW                        0x080016c5   Thumb Code    12  spi_flash.o(.text)
    W25X_FLASH_CS_HIGH                       0x080016d1   Thumb Code    12  spi_flash.o(.text)
    SPI_Flash_ReadID                         0x080016dd   Thumb Code    64  spi_flash.o(.text)
    W25Qxx_Read_Register_Status              0x0800171d   Thumb Code    32  spi_flash.o(.text)
    W25Qxx_Wait_Busy                         0x0800173d   Thumb Code    20  spi_flash.o(.text)
    W25Qxx_WriteEnable                       0x08001751   Thumb Code    32  spi_flash.o(.text)
    W25Qxx_Write_Page                        0x08001771   Thumb Code    76  spi_flash.o(.text)
    W25Qxx_Write_Sector                      0x080017bd   Thumb Code    70  spi_flash.o(.text)
    W25Qxx_EraseSector                       0x08001803   Thumb Code    70  spi_flash.o(.text)
    W25Qxx_Flash_ReadData                    0x08001849   Thumb Code    70  spi_flash.o(.text)
    W25Qxx_Flash_WriteData                   0x0800188f   Thumb Code   178  spi_flash.o(.text)
    SPI_TEST                                 0x08001941   Thumb Code   222  spi_flash.o(.text)
    W25Qxx_Enter_Power_Down                  0x08001a1f   Thumb Code    24  spi_flash.o(.text)
    W25Qxx_Exit_Power_Down                   0x08001a37   Thumb Code    24  spi_flash.o(.text)
    W25Qxx_Write_Register_Status             0x08001a4f   Thumb Code    26  spi_flash.o(.text)
    W25Qxx_WriteDisable                      0x08001a69   Thumb Code    18  spi_flash.o(.text)
    W25Qxx_EraseChip                         0x08001a7b   Thumb Code    30  spi_flash.o(.text)
    USART_Configuration                      0x08001aa9   Thumb Code   124  usart.o(.text)
    SendChar                                 0x08001b25   Thumb Code    30  usart.o(.text)
    GetKey                                   0x08001b43   Thumb Code    24  usart.o(.text)
    fputc                                    0x08001b5b   Thumb Code    32  usart.o(.text)
    LCM_TYPE_SHOW_ON_1602                    0x08001b85   Thumb Code   148  config_hard.o(.text)
    KEY_SCAN_CONTROL                         0x08001c19   Thumb Code   322  config_hard.o(.text)
    LCM_CHANGE                               0x08001d5b   Thumb Code   306  config_hard.o(.text)
    MDelay                                   0x08001e8d   Thumb Code    12  config_hard.o(.text)
    DelayMs                                  0x08001e99   Thumb Code    12  config_hard.o(.text)
    Delay                                    0x08001ea5   Thumb Code    12  config_hard.o(.text)
    HardWare_GPIO_Configuration              0x08001eb1   Thumb Code   550  config_hard.o(.text)
    VSPN_ON                                  0x080020d7   Thumb Code    12  config_hard.o(.text)
    VSPN_OFF                                 0x080020e3   Thumb Code    12  config_hard.o(.text)
    BL_ON                                    0x080020ef   Thumb Code    12  config_hard.o(.text)
    BL_OFF                                   0x080020fb   Thumb Code    12  config_hard.o(.text)
    READ_SSD2828_onebyte                     0x08002107   Thumb Code   636  config_hard.o(.text)
    SSD2825_READ_AnyByte                     0x08002383   Thumb Code   458  config_hard.o(.text)
    STM32TOSSD2828_W_COM                     0x0800254d   Thumb Code   210  config_hard.o(.text)
    STM32TOSSD2828_W_DATA_16BITS             0x0800261f   Thumb Code   384  config_hard.o(.text)
    STM32TOSSD2828_W_DATA_8BITS              0x0800279f   Thumb Code   210  config_hard.o(.text)
    reg_send_check                           0x08002871   Thumb Code    42  config_hard.o(.text)
    SSD2828_VIDEO_MODE_HS                    0x0800289b   Thumb Code    42  config_hard.o(.text)
    SSD2828_ENTER_LP_mode                    0x080028c5   Thumb Code    28  config_hard.o(.text)
    SSD2828_ENTER_READ_LCDIC_mode            0x080028e1   Thumb Code    34  config_hard.o(.text)
    MIPI_Protocol_Write                      0x08002903   Thumb Code    56  config_hard.o(.text)
    MIPI_SPI_Write                           0x0800293b   Thumb Code    68  config_hard.o(.text)
    MIPI_Protocol_WriteA                     0x0800297f   Thumb Code    80  config_hard.o(.text)
    MIPI_SPI_Write_A                         0x080029cf   Thumb Code    68  config_hard.o(.text)
    SSD2828_inition_lcd                      0x08002a13   Thumb Code  2792  config_hard.o(.text)
    STM32_Init_SSD2828                       0x080034fb   Thumb Code   688  config_hard.o(.text)
    enter_sleep_mode                         0x080037ab   Thumb Code    60  config_hard.o(.text)
    TC358768_DCS_write_1A_1P                 0x080037e7   Thumb Code    44  config_hard.o(.text)
    READ_IC                                  0x08003813   Thumb Code   170  config_hard.o(.text)
    ID_CHECK                                 0x080038bd   Thumb Code   172  config_hard.o(.text)
    SSD1963GPIOOUTCOM                        0x08003969   Thumb Code   264  config_hard.o(.text)
    SSD1963GPIOOUTDATA                       0x08003a71   Thumb Code   264  config_hard.o(.text)
    SSD1963INITIALSPHX8363                   0x08003b79   Thumb Code  2064  config_hard.o(.text)
    sendbyte                                 0x08004389   Thumb Code    84  config_hard.o(.text)
    sendstring                               0x080043dd   Thumb Code    22  config_hard.o(.text)
    uart_printf                              0x080043f3   Thumb Code    50  config_hard.o(.text)
    Disp_BMP                                 0x08004429   Thumb Code   462  disp.o(.text)
    LCD1602_PIN_Configuration                0x08004611   Thumb Code   154  lcd1602.o(.text)
    OUTPUT_DATA                              0x080046ab   Thumb Code    26  lcd1602.o(.text)
    LCD1602_Write                            0x080046c5   Thumb Code   154  lcd1602.o(.text)
    LCD1602_Write_L4BIT                      0x0800475f   Thumb Code   110  lcd1602.o(.text)
    LCD1602_Init                             0x080047cd   Thumb Code   168  lcd1602.o(.text)
    Clear_LCD1602                            0x08004875   Thumb Code    12  lcd1602.o(.text)
    LCD1602_Pos                              0x08004881   Thumb Code    16  lcd1602.o(.text)
    LCD1602_display_Line                     0x08004891   Thumb Code    48  lcd1602.o(.text)
    LCD1602_display_Line_A                   0x080048c1   Thumb Code    84  lcd1602.o(.text)
    LCD1602_display_Word                     0x08004915   Thumb Code    22  lcd1602.o(.text)
    LCD1602_display_DATA                     0x0800492b   Thumb Code   148  lcd1602.o(.text)
    LCD1602_LED_ON                           0x080049bf   Thumb Code    14  lcd1602.o(.text)
    LCD1602_LED_OFF                          0x080049cd   Thumb Code    14  lcd1602.o(.text)
    LCD1602_LED_RUN                          0x080049db   Thumb Code    36  lcd1602.o(.text)
    BEEP_BIBI                                0x080049ff   Thumb Code    64  lcd1602.o(.text)
    EEPROMBYTE_24C16_Write                   0x08004a41   Thumb Code     4  gt9271.o(.text)
    EEPROMBYTE_24C16_Read                    0x08004a45   Thumb Code     4  gt9271.o(.text)
    TWait                                    0x08004a49   Thumb Code    10  gt9271.o(.text)
    GT9271_GPIO_Config                       0x08004a53   Thumb Code   104  gt9271.o(.text)
    GT9271_I2CSDASetInput                    0x08004abb   Thumb Code    24  gt9271.o(.text)
    GT9271_I2CSDASetOutput                   0x08004ad3   Thumb Code    30  gt9271.o(.text)
    GT9271_I2CStart                          0x08004af1   Thumb Code    56  gt9271.o(.text)
    GT9271_I2CStop                           0x08004b29   Thumb Code    56  gt9271.o(.text)
    GT9271_I2CSendByte                       0x08004b61   Thumb Code   138  gt9271.o(.text)
    GT9271_I2CReciveByte                     0x08004beb   Thumb Code   132  gt9271.o(.text)
    GT9271_I2CTest                           0x08004c6f   Thumb Code     4  gt9271.o(.text)
    GT9271_I2CSend                           0x08004c73   Thumb Code   114  gt9271.o(.text)
    GT9271_I2CReceive                        0x08004ce5   Thumb Code   160  gt9271.o(.text)
    TOUPANEL_SET_CONFIG                      0x08004d85   Thumb Code   150  gt9271.o(.text)
    TOUCH_POINT_CLEAR                        0x08004e1b   Thumb Code    82  gt9271.o(.text)
    TOUCH_POINT_CHECK_XY                     0x08004e6d   Thumb Code    54  gt9271.o(.text)
    TOUCH_inition                            0x08004ea3   Thumb Code   268  gt9271.o(.text)
    TOUCH_POINT_statu                        0x08004faf   Thumb Code    34  gt9271.o(.text)
    TOUCH_POINT_CHECK_XY_A                   0x08004fd1   Thumb Code   194  gt9271.o(.text)
    CTP_TOUCH_CHECK_A                        0x08005093   Thumb Code   634  gt9271.o(.text)
    RAWDATA_CLEAR                            0x0800530d   Thumb Code    50  gt9271.o(.text)
    CTP_RAWDATA_new_GET                      0x0800533f   Thumb Code   318  gt9271.o(.text)
    GET_RAWDATA_EEPROM                       0x0800547d   Thumb Code   340  gt9271.o(.text)
    RAWDATA_ADD                              0x080055d1   Thumb Code   124  gt9271.o(.text)
    SAVE_RAWDATA_EEPROM                      0x0800564d   Thumb Code   188  gt9271.o(.text)
    SHOW_Default_TP_RAWDATA                  0x08005709   Thumb Code   102  gt9271.o(.text)
    AUTO_CHECK_RAWDATA                       0x0800576f   Thumb Code    80  gt9271.o(.text)
    CTP_RAWDATA_CHECK_A                      0x080057bf   Thumb Code    70  gt9271.o(.text)
    CTP_GT9271_TEST                          0x08005805   Thumb Code   682  gt9271.o(.text)
    GET_TP_PROJECT_NAME                      0x08005aaf   Thumb Code    26  gt9271.o(.text)
    SET_TP_PROJECT_NAME                      0x08005ac9   Thumb Code    26  gt9271.o(.text)
    SHOW_TP_PROJECT_NAME                     0x08005ae3   Thumb Code   150  gt9271.o(.text)
    T226_GPIO_Config                         0x08005b79   Thumb Code    64  iic_current.o(.text)
    T226_I2CSDASetInput                      0x08005bb9   Thumb Code    24  iic_current.o(.text)
    T226_I2CSDASetOutput                     0x08005bd1   Thumb Code    30  iic_current.o(.text)
    T226_I2CStart                            0x08005bef   Thumb Code    48  iic_current.o(.text)
    T226_I2CStop                             0x08005c1f   Thumb Code    48  iic_current.o(.text)
    T226_I2CSendByte                         0x08005c4f   Thumb Code   126  iic_current.o(.text)
    T226_I2CReciveByte                       0x08005ccd   Thumb Code   120  iic_current.o(.text)
    T226_I2CTest                             0x08005d45   Thumb Code     4  iic_current.o(.text)
    T226_I2CSend                             0x08005d49   Thumb Code    86  iic_current.o(.text)
    T226_I2CReceive                          0x08005d9f   Thumb Code   134  iic_current.o(.text)
    T226_intion                              0x08005e25   Thumb Code   222  iic_current.o(.text)
    Measure_IDD_once                         0x08005f03   Thumb Code   106  iic_current.o(.text)
    Measure_IDD                              0x08005f6d   Thumb Code   204  iic_current.o(.text)
    NVIC_PriorityGroupConfig                 0x08006039   Thumb Code    10  misc.o(.text)
    NVIC_Init                                0x08006043   Thumb Code   100  misc.o(.text)
    NVIC_SetVectorTable                      0x080060a7   Thumb Code    14  misc.o(.text)
    NVIC_SystemLPConfig                      0x080060b5   Thumb Code    34  misc.o(.text)
    SysTick_CLKSourceConfig                  0x080060d7   Thumb Code    40  misc.o(.text)
    EXTI_DeInit                              0x08006115   Thumb Code    28  stm32f10x_exti.o(.text)
    EXTI_Init                                0x08006131   Thumb Code   174  stm32f10x_exti.o(.text)
    EXTI_StructInit                          0x080061df   Thumb Code    16  stm32f10x_exti.o(.text)
    EXTI_GenerateSWInterrupt                 0x080061ef   Thumb Code    16  stm32f10x_exti.o(.text)
    EXTI_GetFlagStatus                       0x080061ff   Thumb Code    22  stm32f10x_exti.o(.text)
    EXTI_ClearFlag                           0x08006215   Thumb Code     8  stm32f10x_exti.o(.text)
    EXTI_GetITStatus                         0x0800621d   Thumb Code    34  stm32f10x_exti.o(.text)
    EXTI_ClearITPendingBit                   0x0800623f   Thumb Code     8  stm32f10x_exti.o(.text)
    FSMC_NORSRAMDeInit                       0x08006255   Thumb Code    54  stm32f10x_fsmc.o(.text)
    FSMC_NANDDeInit                          0x0800628b   Thumb Code    62  stm32f10x_fsmc.o(.text)
    FSMC_PCCARDDeInit                        0x080062c9   Thumb Code    36  stm32f10x_fsmc.o(.text)
    FSMC_NORSRAMInit                         0x080062ed   Thumb Code   226  stm32f10x_fsmc.o(.text)
    FSMC_NANDInit                            0x080063cf   Thumb Code   132  stm32f10x_fsmc.o(.text)
    FSMC_PCCARDInit                          0x08006453   Thumb Code   130  stm32f10x_fsmc.o(.text)
    FSMC_NORSRAMStructInit                   0x080064d5   Thumb Code   112  stm32f10x_fsmc.o(.text)
    FSMC_NANDStructInit                      0x08006545   Thumb Code    54  stm32f10x_fsmc.o(.text)
    FSMC_PCCARDStructInit                    0x0800657b   Thumb Code    60  stm32f10x_fsmc.o(.text)
    FSMC_NORSRAMCmd                          0x080065b7   Thumb Code    46  stm32f10x_fsmc.o(.text)
    FSMC_NANDCmd                             0x080065e5   Thumb Code    86  stm32f10x_fsmc.o(.text)
    FSMC_PCCARDCmd                           0x0800663b   Thumb Code    44  stm32f10x_fsmc.o(.text)
    FSMC_NANDECCCmd                          0x08006667   Thumb Code    90  stm32f10x_fsmc.o(.text)
    FSMC_GetECC                              0x080066c1   Thumb Code    24  stm32f10x_fsmc.o(.text)
    FSMC_ITConfig                            0x080066d9   Thumb Code   128  stm32f10x_fsmc.o(.text)
    FSMC_GetFlagStatus                       0x08006759   Thumb Code    54  stm32f10x_fsmc.o(.text)
    FSMC_ClearFlag                           0x0800678f   Thumb Code    62  stm32f10x_fsmc.o(.text)
    FSMC_GetITStatus                         0x080067cd   Thumb Code    64  stm32f10x_fsmc.o(.text)
    FSMC_ClearITPendingBit                   0x0800680d   Thumb Code    68  stm32f10x_fsmc.o(.text)
    GPIO_DeInit                              0x08006859   Thumb Code   188  stm32f10x_gpio.o(.text)
    GPIO_AFIODeInit                          0x08006915   Thumb Code    20  stm32f10x_gpio.o(.text)
    GPIO_Init                                0x08006929   Thumb Code   278  stm32f10x_gpio.o(.text)
    GPIO_StructInit                          0x08006a3f   Thumb Code    16  stm32f10x_gpio.o(.text)
    GPIO_ReadInputDataBit                    0x08006a4f   Thumb Code    18  stm32f10x_gpio.o(.text)
    GPIO_ReadInputData                       0x08006a61   Thumb Code     8  stm32f10x_gpio.o(.text)
    GPIO_ReadOutputDataBit                   0x08006a69   Thumb Code    18  stm32f10x_gpio.o(.text)
    GPIO_ReadOutputData                      0x08006a7b   Thumb Code     8  stm32f10x_gpio.o(.text)
    GPIO_SetBits                             0x08006a83   Thumb Code     4  stm32f10x_gpio.o(.text)
    GPIO_ResetBits                           0x08006a87   Thumb Code     4  stm32f10x_gpio.o(.text)
    GPIO_WriteBit                            0x08006a8b   Thumb Code    10  stm32f10x_gpio.o(.text)
    GPIO_Write                               0x08006a95   Thumb Code     4  stm32f10x_gpio.o(.text)
    GPIO_PinLockConfig                       0x08006a99   Thumb Code    18  stm32f10x_gpio.o(.text)
    GPIO_EventOutputConfig                   0x08006aab   Thumb Code    26  stm32f10x_gpio.o(.text)
    GPIO_EventOutputCmd                      0x08006ac5   Thumb Code     6  stm32f10x_gpio.o(.text)
    GPIO_PinRemapConfig                      0x08006acb   Thumb Code   106  stm32f10x_gpio.o(.text)
    GPIO_EXTILineConfig                      0x08006b35   Thumb Code    66  stm32f10x_gpio.o(.text)
    RCC_DeInit                               0x08006b89   Thumb Code    62  stm32f10x_rcc.o(.text)
    RCC_HSEConfig                            0x08006bc7   Thumb Code    70  stm32f10x_rcc.o(.text)
    RCC_GetFlagStatus                        0x08006c0d   Thumb Code    56  stm32f10x_rcc.o(.text)
    RCC_WaitForHSEStartUp                    0x08006c45   Thumb Code    54  stm32f10x_rcc.o(.text)
    RCC_AdjustHSICalibrationValue            0x08006c7b   Thumb Code    20  stm32f10x_rcc.o(.text)
    RCC_HSICmd                               0x08006c8f   Thumb Code     6  stm32f10x_rcc.o(.text)
    RCC_PLLConfig                            0x08006c95   Thumb Code    24  stm32f10x_rcc.o(.text)
    RCC_PLLCmd                               0x08006cad   Thumb Code     6  stm32f10x_rcc.o(.text)
    RCC_SYSCLKConfig                         0x08006cb3   Thumb Code    18  stm32f10x_rcc.o(.text)
    RCC_GetSYSCLKSource                      0x08006cc5   Thumb Code    10  stm32f10x_rcc.o(.text)
    RCC_HCLKConfig                           0x08006ccf   Thumb Code    18  stm32f10x_rcc.o(.text)
    RCC_PCLK1Config                          0x08006ce1   Thumb Code    18  stm32f10x_rcc.o(.text)
    RCC_PCLK2Config                          0x08006cf3   Thumb Code    20  stm32f10x_rcc.o(.text)
    RCC_ITConfig                             0x08006d07   Thumb Code    26  stm32f10x_rcc.o(.text)
    RCC_USBCLKConfig                         0x08006d21   Thumb Code     8  stm32f10x_rcc.o(.text)
    RCC_ADCCLKConfig                         0x08006d29   Thumb Code    18  stm32f10x_rcc.o(.text)
    RCC_LSEConfig                            0x08006d3b   Thumb Code    50  stm32f10x_rcc.o(.text)
    RCC_LSICmd                               0x08006d6d   Thumb Code     6  stm32f10x_rcc.o(.text)
    RCC_RTCCLKConfig                         0x08006d73   Thumb Code    12  stm32f10x_rcc.o(.text)
    RCC_RTCCLKCmd                            0x08006d7f   Thumb Code     8  stm32f10x_rcc.o(.text)
    RCC_GetClocksFreq                        0x08006d87   Thumb Code   192  stm32f10x_rcc.o(.text)
    RCC_AHBPeriphClockCmd                    0x08006e47   Thumb Code    26  stm32f10x_rcc.o(.text)
    RCC_APB2PeriphClockCmd                   0x08006e61   Thumb Code    26  stm32f10x_rcc.o(.text)
    RCC_APB1PeriphClockCmd                   0x08006e7b   Thumb Code    26  stm32f10x_rcc.o(.text)
    RCC_APB2PeriphResetCmd                   0x08006e95   Thumb Code    26  stm32f10x_rcc.o(.text)
    RCC_APB1PeriphResetCmd                   0x08006eaf   Thumb Code    26  stm32f10x_rcc.o(.text)
    RCC_BackupResetCmd                       0x08006ec9   Thumb Code     8  stm32f10x_rcc.o(.text)
    RCC_ClockSecuritySystemCmd               0x08006ed1   Thumb Code     6  stm32f10x_rcc.o(.text)
    RCC_MCOConfig                            0x08006ed7   Thumb Code     6  stm32f10x_rcc.o(.text)
    RCC_ClearFlag                            0x08006edd   Thumb Code    14  stm32f10x_rcc.o(.text)
    RCC_GetITStatus                          0x08006eeb   Thumb Code    20  stm32f10x_rcc.o(.text)
    RCC_ClearITPendingBit                    0x08006eff   Thumb Code     6  stm32f10x_rcc.o(.text)
    USART_DeInit                             0x08006f29   Thumb Code   146  stm32f10x_usart.o(.text)
    USART_Init                               0x08006fbb   Thumb Code   150  stm32f10x_usart.o(.text)
    USART_StructInit                         0x08007051   Thumb Code    24  stm32f10x_usart.o(.text)
    USART_ClockInit                          0x08007069   Thumb Code    34  stm32f10x_usart.o(.text)
    USART_ClockStructInit                    0x0800708b   Thumb Code    12  stm32f10x_usart.o(.text)
    USART_Cmd                                0x08007097   Thumb Code    24  stm32f10x_usart.o(.text)
    USART_ITConfig                           0x080070af   Thumb Code    64  stm32f10x_usart.o(.text)
    USART_DMACmd                             0x080070ef   Thumb Code    18  stm32f10x_usart.o(.text)
    USART_SetAddress                         0x08007101   Thumb Code    18  stm32f10x_usart.o(.text)
    USART_WakeUpConfig                       0x08007113   Thumb Code    18  stm32f10x_usart.o(.text)
    USART_ReceiverWakeUpCmd                  0x08007125   Thumb Code    24  stm32f10x_usart.o(.text)
    USART_LINBreakDetectLengthConfig         0x0800713d   Thumb Code    18  stm32f10x_usart.o(.text)
    USART_LINCmd                             0x0800714f   Thumb Code    24  stm32f10x_usart.o(.text)
    USART_SendData                           0x08007167   Thumb Code     8  stm32f10x_usart.o(.text)
    USART_ReceiveData                        0x0800716f   Thumb Code    10  stm32f10x_usart.o(.text)
    USART_SendBreak                          0x08007179   Thumb Code    10  stm32f10x_usart.o(.text)
    USART_SetGuardTime                       0x08007183   Thumb Code    16  stm32f10x_usart.o(.text)
    USART_SetPrescaler                       0x08007193   Thumb Code    16  stm32f10x_usart.o(.text)
    USART_SmartCardCmd                       0x080071a3   Thumb Code    24  stm32f10x_usart.o(.text)
    USART_SmartCardNACKCmd                   0x080071bb   Thumb Code    24  stm32f10x_usart.o(.text)
    USART_HalfDuplexCmd                      0x080071d3   Thumb Code    24  stm32f10x_usart.o(.text)
    USART_IrDAConfig                         0x080071eb   Thumb Code    18  stm32f10x_usart.o(.text)
    USART_IrDACmd                            0x080071fd   Thumb Code    24  stm32f10x_usart.o(.text)
    USART_GetFlagStatus                      0x08007215   Thumb Code    18  stm32f10x_usart.o(.text)
    USART_ClearFlag                          0x08007227   Thumb Code     6  stm32f10x_usart.o(.text)
    USART_GetITStatus                        0x0800722d   Thumb Code    76  stm32f10x_usart.o(.text)
    USART_ClearITPendingBit                  0x08007279   Thumb Code    20  stm32f10x_usart.o(.text)
    SPI_I2S_DeInit                           0x08007299   Thumb Code    88  stm32f10x_spi.o(.text)
    SPI_Init                                 0x080072f1   Thumb Code    60  stm32f10x_spi.o(.text)
    I2S_Init                                 0x0800732d   Thumb Code   210  stm32f10x_spi.o(.text)
    SPI_StructInit                           0x080073ff   Thumb Code    24  stm32f10x_spi.o(.text)
    I2S_StructInit                           0x08007417   Thumb Code    20  stm32f10x_spi.o(.text)
    SPI_Cmd                                  0x0800742b   Thumb Code    24  stm32f10x_spi.o(.text)
    I2S_Cmd                                  0x08007443   Thumb Code    24  stm32f10x_spi.o(.text)
    SPI_I2S_ITConfig                         0x0800745b   Thumb Code    32  stm32f10x_spi.o(.text)
    SPI_I2S_DMACmd                           0x0800747b   Thumb Code    18  stm32f10x_spi.o(.text)
    SPI_I2S_SendData                         0x0800748d   Thumb Code     4  stm32f10x_spi.o(.text)
    SPI_I2S_ReceiveData                      0x08007491   Thumb Code     6  stm32f10x_spi.o(.text)
    SPI_NSSInternalSoftwareConfig            0x08007497   Thumb Code    30  stm32f10x_spi.o(.text)
    SPI_SSOutputCmd                          0x080074b5   Thumb Code    24  stm32f10x_spi.o(.text)
    SPI_DataSizeConfig                       0x080074cd   Thumb Code    18  stm32f10x_spi.o(.text)
    SPI_TransmitCRC                          0x080074df   Thumb Code    10  stm32f10x_spi.o(.text)
    SPI_CalculateCRC                         0x080074e9   Thumb Code    24  stm32f10x_spi.o(.text)
    SPI_GetCRC                               0x08007501   Thumb Code    16  stm32f10x_spi.o(.text)
    SPI_GetCRCPolynomial                     0x08007511   Thumb Code     6  stm32f10x_spi.o(.text)
    SPI_BiDirectionalLineConfig              0x08007517   Thumb Code    28  stm32f10x_spi.o(.text)
    SPI_I2S_GetFlagStatus                    0x08007533   Thumb Code    18  stm32f10x_spi.o(.text)
    SPI_I2S_ClearFlag                        0x08007545   Thumb Code     6  stm32f10x_spi.o(.text)
    SPI_I2S_GetITStatus                      0x0800754b   Thumb Code    52  stm32f10x_spi.o(.text)
    SPI_I2S_ClearITPendingBit                0x0800757f   Thumb Code    20  stm32f10x_spi.o(.text)
    DMA_DeInit                               0x08007599   Thumb Code   306  stm32f10x_dma.o(.text)
    DMA_Init                                 0x080076cb   Thumb Code    60  stm32f10x_dma.o(.text)
    DMA_StructInit                           0x08007707   Thumb Code    26  stm32f10x_dma.o(.text)
    DMA_Cmd                                  0x08007721   Thumb Code    22  stm32f10x_dma.o(.text)
    DMA_ITConfig                             0x08007737   Thumb Code    18  stm32f10x_dma.o(.text)
    DMA_GetCurrDataCounter                   0x08007749   Thumb Code     8  stm32f10x_dma.o(.text)
    DMA_GetFlagStatus                        0x08007751   Thumb Code    40  stm32f10x_dma.o(.text)
    DMA_ClearFlag                            0x08007779   Thumb Code    20  stm32f10x_dma.o(.text)
    DMA_GetITStatus                          0x0800778d   Thumb Code    40  stm32f10x_dma.o(.text)
    DMA_ClearITPendingBit                    0x080077b5   Thumb Code    20  stm32f10x_dma.o(.text)
    SDIO_DeInit                              0x080077d9   Thumb Code    28  stm32f10x_sdio.o(.text)
    SDIO_Init                                0x080077f5   Thumb Code    42  stm32f10x_sdio.o(.text)
    SDIO_StructInit                          0x0800781f   Thumb Code    16  stm32f10x_sdio.o(.text)
    SDIO_ClockCmd                            0x0800782f   Thumb Code     6  stm32f10x_sdio.o(.text)
    SDIO_SetPowerState                       0x08007835   Thumb Code    22  stm32f10x_sdio.o(.text)
    SDIO_GetPowerState                       0x0800784b   Thumb Code    10  stm32f10x_sdio.o(.text)
    SDIO_ITConfig                            0x08007855   Thumb Code    26  stm32f10x_sdio.o(.text)
    SDIO_DMACmd                              0x0800786f   Thumb Code     6  stm32f10x_sdio.o(.text)
    SDIO_SendCommand                         0x08007875   Thumb Code    38  stm32f10x_sdio.o(.text)
    SDIO_CmdStructInit                       0x0800789b   Thumb Code    14  stm32f10x_sdio.o(.text)
    SDIO_GetCommandResponse                  0x080078a9   Thumb Code     8  stm32f10x_sdio.o(.text)
    SDIO_GetResponse                         0x080078b1   Thumb Code    10  stm32f10x_sdio.o(.text)
    SDIO_DataConfig                          0x080078bb   Thumb Code    42  stm32f10x_sdio.o(.text)
    SDIO_DataStructInit                      0x080078e5   Thumb Code    20  stm32f10x_sdio.o(.text)
    SDIO_GetDataCounter                      0x080078f9   Thumb Code     6  stm32f10x_sdio.o(.text)
    SDIO_ReadData                            0x080078ff   Thumb Code     8  stm32f10x_sdio.o(.text)
    SDIO_WriteData                           0x08007907   Thumb Code     8  stm32f10x_sdio.o(.text)
    SDIO_GetFIFOCount                        0x0800790f   Thumb Code     6  stm32f10x_sdio.o(.text)
    SDIO_StartSDIOReadWait                   0x08007915   Thumb Code     8  stm32f10x_sdio.o(.text)
    SDIO_StopSDIOReadWait                    0x0800791d   Thumb Code     8  stm32f10x_sdio.o(.text)
    SDIO_SetSDIOReadWaitMode                 0x08007925   Thumb Code     8  stm32f10x_sdio.o(.text)
    SDIO_SetSDIOOperation                    0x0800792d   Thumb Code     8  stm32f10x_sdio.o(.text)
    SDIO_SendSDIOSuspendCmd                  0x08007935   Thumb Code     6  stm32f10x_sdio.o(.text)
    SDIO_CommandCompletionCmd                0x0800793b   Thumb Code     8  stm32f10x_sdio.o(.text)
    SDIO_CEATAITCmd                          0x08007943   Thumb Code    12  stm32f10x_sdio.o(.text)
    SDIO_SendCEATACmd                        0x0800794f   Thumb Code     8  stm32f10x_sdio.o(.text)
    SDIO_GetFlagStatus                       0x08007957   Thumb Code    20  stm32f10x_sdio.o(.text)
    SDIO_ClearFlag                           0x0800796b   Thumb Code     6  stm32f10x_sdio.o(.text)
    SDIO_GetITStatus                         0x08007971   Thumb Code    20  stm32f10x_sdio.o(.text)
    SDIO_ClearITPendingBit                   0x08007985   Thumb Code     6  stm32f10x_sdio.o(.text)
    TIM_DeInit                               0x080079a1   Thumb Code   214  stm32f10x_tim.o(.text)
    TIM_TimeBaseInit                         0x08007a77   Thumb Code    50  stm32f10x_tim.o(.text)
    TIM_OC1Init                              0x08007aa9   Thumb Code   110  stm32f10x_tim.o(.text)
    TIM_OC2Init                              0x08007b17   Thumb Code   148  stm32f10x_tim.o(.text)
    TIM_OC3Init                              0x08007bab   Thumb Code   144  stm32f10x_tim.o(.text)
    TIM_OC4Init                              0x08007c3b   Thumb Code   106  stm32f10x_tim.o(.text)
    TIM_SetIC4Prescaler                      0x08007ca5   Thumb Code    26  stm32f10x_tim.o(.text)
    TIM_SetIC3Prescaler                      0x08007d11   Thumb Code    18  stm32f10x_tim.o(.text)
    TIM_SetIC2Prescaler                      0x08007d6b   Thumb Code    42  stm32f10x_tim.o(.text)
    TIM_SetIC1Prescaler                      0x08007de5   Thumb Code    18  stm32f10x_tim.o(.text)
    TIM_ICInit                               0x08007e2f   Thumb Code   110  stm32f10x_tim.o(.text)
    TIM_PWMIConfig                           0x08007e9d   Thumb Code   124  stm32f10x_tim.o(.text)
    TIM_BDTRConfig                           0x08007f19   Thumb Code    32  stm32f10x_tim.o(.text)
    TIM_TimeBaseStructInit                   0x08007f39   Thumb Code    18  stm32f10x_tim.o(.text)
    TIM_OCStructInit                         0x08007f4b   Thumb Code    20  stm32f10x_tim.o(.text)
    TIM_ICStructInit                         0x08007f5f   Thumb Code    18  stm32f10x_tim.o(.text)
    TIM_BDTRStructInit                       0x08007f71   Thumb Code    18  stm32f10x_tim.o(.text)
    TIM_Cmd                                  0x08007f83   Thumb Code    24  stm32f10x_tim.o(.text)
    TIM_CtrlPWMOutputs                       0x08007f9b   Thumb Code    30  stm32f10x_tim.o(.text)
    TIM_ITConfig                             0x08007fb9   Thumb Code    18  stm32f10x_tim.o(.text)
    TIM_GenerateEvent                        0x08007fcb   Thumb Code     4  stm32f10x_tim.o(.text)
    TIM_DMAConfig                            0x08007fcf   Thumb Code    10  stm32f10x_tim.o(.text)
    TIM_DMACmd                               0x08007fd9   Thumb Code    18  stm32f10x_tim.o(.text)
    TIM_InternalClockConfig                  0x08007feb   Thumb Code    12  stm32f10x_tim.o(.text)
    TIM_SelectInputTrigger                   0x08007ff7   Thumb Code    18  stm32f10x_tim.o(.text)
    TIM_ITRxExternalClockConfig              0x08008009   Thumb Code    24  stm32f10x_tim.o(.text)
    TIM_TIxExternalClockConfig               0x08008021   Thumb Code    62  stm32f10x_tim.o(.text)
    TIM_ETRConfig                            0x0800805f   Thumb Code    30  stm32f10x_tim.o(.text)
    TIM_ETRClockMode1Config                  0x0800807d   Thumb Code    54  stm32f10x_tim.o(.text)
    TIM_ETRClockMode2Config                  0x080080b3   Thumb Code    32  stm32f10x_tim.o(.text)
    TIM_PrescalerConfig                      0x080080d3   Thumb Code     6  stm32f10x_tim.o(.text)
    TIM_CounterModeConfig                    0x080080d9   Thumb Code    18  stm32f10x_tim.o(.text)
    TIM_EncoderInterfaceConfig               0x080080eb   Thumb Code    66  stm32f10x_tim.o(.text)
    TIM_ForcedOC1Config                      0x0800812d   Thumb Code    18  stm32f10x_tim.o(.text)
    TIM_ForcedOC2Config                      0x0800813f   Thumb Code    26  stm32f10x_tim.o(.text)
    TIM_ForcedOC3Config                      0x08008159   Thumb Code    18  stm32f10x_tim.o(.text)
    TIM_ForcedOC4Config                      0x0800816b   Thumb Code    26  stm32f10x_tim.o(.text)
    TIM_ARRPreloadConfig                     0x08008185   Thumb Code    24  stm32f10x_tim.o(.text)
    TIM_SelectCOM                            0x0800819d   Thumb Code    24  stm32f10x_tim.o(.text)
    TIM_SelectCCDMA                          0x080081b5   Thumb Code    24  stm32f10x_tim.o(.text)
    TIM_CCPreloadControl                     0x080081cd   Thumb Code    24  stm32f10x_tim.o(.text)
    TIM_OC1PreloadConfig                     0x080081e5   Thumb Code    18  stm32f10x_tim.o(.text)
    TIM_OC2PreloadConfig                     0x080081f7   Thumb Code    26  stm32f10x_tim.o(.text)
    TIM_OC3PreloadConfig                     0x08008211   Thumb Code    18  stm32f10x_tim.o(.text)
    TIM_OC4PreloadConfig                     0x08008223   Thumb Code    26  stm32f10x_tim.o(.text)
    TIM_OC1FastConfig                        0x0800823d   Thumb Code    18  stm32f10x_tim.o(.text)
    TIM_OC2FastConfig                        0x0800824f   Thumb Code    26  stm32f10x_tim.o(.text)
    TIM_OC3FastConfig                        0x08008269   Thumb Code    18  stm32f10x_tim.o(.text)
    TIM_OC4FastConfig                        0x0800827b   Thumb Code    26  stm32f10x_tim.o(.text)
    TIM_ClearOC1Ref                          0x08008295   Thumb Code    18  stm32f10x_tim.o(.text)
    TIM_ClearOC2Ref                          0x080082a7   Thumb Code    24  stm32f10x_tim.o(.text)
    TIM_ClearOC3Ref                          0x080082bf   Thumb Code    18  stm32f10x_tim.o(.text)
    TIM_ClearOC4Ref                          0x080082d1   Thumb Code    24  stm32f10x_tim.o(.text)
    TIM_OC1PolarityConfig                    0x080082e9   Thumb Code    18  stm32f10x_tim.o(.text)
    TIM_OC1NPolarityConfig                   0x080082fb   Thumb Code    18  stm32f10x_tim.o(.text)
    TIM_OC2PolarityConfig                    0x0800830d   Thumb Code    26  stm32f10x_tim.o(.text)
    TIM_OC2NPolarityConfig                   0x08008327   Thumb Code    26  stm32f10x_tim.o(.text)
    TIM_OC3PolarityConfig                    0x08008341   Thumb Code    26  stm32f10x_tim.o(.text)
    TIM_OC3NPolarityConfig                   0x0800835b   Thumb Code    26  stm32f10x_tim.o(.text)
    TIM_OC4PolarityConfig                    0x08008375   Thumb Code    26  stm32f10x_tim.o(.text)
    TIM_CCxCmd                               0x0800838f   Thumb Code    26  stm32f10x_tim.o(.text)
    TIM_CCxNCmd                              0x080083a9   Thumb Code    26  stm32f10x_tim.o(.text)
    TIM_SelectOCxM                           0x080083c3   Thumb Code   134  stm32f10x_tim.o(.text)
    TIM_UpdateDisableConfig                  0x08008449   Thumb Code    24  stm32f10x_tim.o(.text)
    TIM_UpdateRequestConfig                  0x08008461   Thumb Code    24  stm32f10x_tim.o(.text)
    TIM_SelectHallSensor                     0x08008479   Thumb Code    24  stm32f10x_tim.o(.text)
    TIM_SelectOnePulseMode                   0x08008491   Thumb Code    18  stm32f10x_tim.o(.text)
    TIM_SelectOutputTrigger                  0x080084a3   Thumb Code    18  stm32f10x_tim.o(.text)
    TIM_SelectSlaveMode                      0x080084b5   Thumb Code    18  stm32f10x_tim.o(.text)
    TIM_SelectMasterSlaveMode                0x080084c7   Thumb Code    18  stm32f10x_tim.o(.text)
    TIM_SetCounter                           0x080084d9   Thumb Code     4  stm32f10x_tim.o(.text)
    TIM_SetAutoreload                        0x080084dd   Thumb Code     4  stm32f10x_tim.o(.text)
    TIM_SetCompare1                          0x080084e1   Thumb Code     4  stm32f10x_tim.o(.text)
    TIM_SetCompare2                          0x080084e5   Thumb Code     4  stm32f10x_tim.o(.text)
    TIM_SetCompare3                          0x080084e9   Thumb Code     4  stm32f10x_tim.o(.text)
    TIM_SetCompare4                          0x080084ed   Thumb Code     6  stm32f10x_tim.o(.text)
    TIM_SetClockDivision                     0x080084f3   Thumb Code    14  stm32f10x_tim.o(.text)
    TIM_GetCapture1                          0x08008501   Thumb Code     6  stm32f10x_tim.o(.text)
    TIM_GetCapture2                          0x08008507   Thumb Code     6  stm32f10x_tim.o(.text)
    TIM_GetCapture3                          0x0800850d   Thumb Code     6  stm32f10x_tim.o(.text)
    TIM_GetCapture4                          0x08008513   Thumb Code     8  stm32f10x_tim.o(.text)
    TIM_GetCounter                           0x0800851b   Thumb Code     6  stm32f10x_tim.o(.text)
    TIM_GetPrescaler                         0x08008521   Thumb Code     6  stm32f10x_tim.o(.text)
    TIM_GetFlagStatus                        0x08008527   Thumb Code    18  stm32f10x_tim.o(.text)
    TIM_ClearFlag                            0x08008539   Thumb Code     6  stm32f10x_tim.o(.text)
    TIM_GetITStatus                          0x0800853f   Thumb Code    34  stm32f10x_tim.o(.text)
    TIM_ClearITPendingBit                    0x08008561   Thumb Code     6  stm32f10x_tim.o(.text)
    SystemInit_ExtMemCtl                     0x08008569   Thumb Code     2  startup_stm32f10x_hd.o(.text)
    Reset_Handler                            0x0800856b   Thumb Code    14  startup_stm32f10x_hd.o(.text)
    ADC1_2_IRQHandler                        0x0800858b   Thumb Code     0  startup_stm32f10x_hd.o(.text)
    ADC3_IRQHandler                          0x0800858b   Thumb Code     0  startup_stm32f10x_hd.o(.text)
    CAN1_RX1_IRQHandler                      0x0800858b   Thumb Code     0  startup_stm32f10x_hd.o(.text)
    CAN1_SCE_IRQHandler                      0x0800858b   Thumb Code     0  startup_stm32f10x_hd.o(.text)
    DMA1_Channel1_IRQHandler                 0x0800858b   Thumb Code     0  startup_stm32f10x_hd.o(.text)
    DMA1_Channel2_IRQHandler                 0x0800858b   Thumb Code     0  startup_stm32f10x_hd.o(.text)
    DMA1_Channel3_IRQHandler                 0x0800858b   Thumb Code     0  startup_stm32f10x_hd.o(.text)
    DMA1_Channel4_IRQHandler                 0x0800858b   Thumb Code     0  startup_stm32f10x_hd.o(.text)
    DMA1_Channel5_IRQHandler                 0x0800858b   Thumb Code     0  startup_stm32f10x_hd.o(.text)
    DMA1_Channel6_IRQHandler                 0x0800858b   Thumb Code     0  startup_stm32f10x_hd.o(.text)
    DMA1_Channel7_IRQHandler                 0x0800858b   Thumb Code     0  startup_stm32f10x_hd.o(.text)
    DMA2_Channel1_IRQHandler                 0x0800858b   Thumb Code     0  startup_stm32f10x_hd.o(.text)
    DMA2_Channel2_IRQHandler                 0x0800858b   Thumb Code     0  startup_stm32f10x_hd.o(.text)
    DMA2_Channel3_IRQHandler                 0x0800858b   Thumb Code     0  startup_stm32f10x_hd.o(.text)
    DMA2_Channel4_5_IRQHandler               0x0800858b   Thumb Code     0  startup_stm32f10x_hd.o(.text)
    EXTI0_IRQHandler                         0x0800858b   Thumb Code     0  startup_stm32f10x_hd.o(.text)
    EXTI1_IRQHandler                         0x0800858b   Thumb Code     0  startup_stm32f10x_hd.o(.text)
    EXTI2_IRQHandler                         0x0800858b   Thumb Code     0  startup_stm32f10x_hd.o(.text)
    EXTI3_IRQHandler                         0x0800858b   Thumb Code     0  startup_stm32f10x_hd.o(.text)
    EXTI4_IRQHandler                         0x0800858b   Thumb Code     0  startup_stm32f10x_hd.o(.text)
    EXTI9_5_IRQHandler                       0x0800858b   Thumb Code     0  startup_stm32f10x_hd.o(.text)
    FLASH_IRQHandler                         0x0800858b   Thumb Code     0  startup_stm32f10x_hd.o(.text)
    FSMC_IRQHandler                          0x0800858b   Thumb Code     0  startup_stm32f10x_hd.o(.text)
    I2C1_ER_IRQHandler                       0x0800858b   Thumb Code     0  startup_stm32f10x_hd.o(.text)
    I2C1_EV_IRQHandler                       0x0800858b   Thumb Code     0  startup_stm32f10x_hd.o(.text)
    I2C2_ER_IRQHandler                       0x0800858b   Thumb Code     0  startup_stm32f10x_hd.o(.text)
    I2C2_EV_IRQHandler                       0x0800858b   Thumb Code     0  startup_stm32f10x_hd.o(.text)
    PVD_IRQHandler                           0x0800858b   Thumb Code     0  startup_stm32f10x_hd.o(.text)
    RCC_IRQHandler                           0x0800858b   Thumb Code     0  startup_stm32f10x_hd.o(.text)
    RTCAlarm_IRQHandler                      0x0800858b   Thumb Code     0  startup_stm32f10x_hd.o(.text)
    RTC_IRQHandler                           0x0800858b   Thumb Code     0  startup_stm32f10x_hd.o(.text)
    SPI1_IRQHandler                          0x0800858b   Thumb Code     0  startup_stm32f10x_hd.o(.text)
    SPI2_IRQHandler                          0x0800858b   Thumb Code     0  startup_stm32f10x_hd.o(.text)
    SPI3_IRQHandler                          0x0800858b   Thumb Code     0  startup_stm32f10x_hd.o(.text)
    TAMPER_IRQHandler                        0x0800858b   Thumb Code     0  startup_stm32f10x_hd.o(.text)
    TIM1_BRK_IRQHandler                      0x0800858b   Thumb Code     0  startup_stm32f10x_hd.o(.text)
    TIM1_CC_IRQHandler                       0x0800858b   Thumb Code     0  startup_stm32f10x_hd.o(.text)
    TIM1_TRG_COM_IRQHandler                  0x0800858b   Thumb Code     0  startup_stm32f10x_hd.o(.text)
    TIM1_UP_IRQHandler                       0x0800858b   Thumb Code     0  startup_stm32f10x_hd.o(.text)
    TIM2_IRQHandler                          0x0800858b   Thumb Code     0  startup_stm32f10x_hd.o(.text)
    TIM3_IRQHandler                          0x0800858b   Thumb Code     0  startup_stm32f10x_hd.o(.text)
    TIM4_IRQHandler                          0x0800858b   Thumb Code     0  startup_stm32f10x_hd.o(.text)
    TIM5_IRQHandler                          0x0800858b   Thumb Code     0  startup_stm32f10x_hd.o(.text)
    TIM6_IRQHandler                          0x0800858b   Thumb Code     0  startup_stm32f10x_hd.o(.text)
    TIM7_IRQHandler                          0x0800858b   Thumb Code     0  startup_stm32f10x_hd.o(.text)
    TIM8_BRK_IRQHandler                      0x0800858b   Thumb Code     0  startup_stm32f10x_hd.o(.text)
    TIM8_CC_IRQHandler                       0x0800858b   Thumb Code     0  startup_stm32f10x_hd.o(.text)
    TIM8_TRG_COM_IRQHandler                  0x0800858b   Thumb Code     0  startup_stm32f10x_hd.o(.text)
    TIM8_UP_IRQHandler                       0x0800858b   Thumb Code     0  startup_stm32f10x_hd.o(.text)
    UART4_IRQHandler                         0x0800858b   Thumb Code     0  startup_stm32f10x_hd.o(.text)
    UART5_IRQHandler                         0x0800858b   Thumb Code     0  startup_stm32f10x_hd.o(.text)
    USART1_IRQHandler                        0x0800858b   Thumb Code     0  startup_stm32f10x_hd.o(.text)
    USART2_IRQHandler                        0x0800858b   Thumb Code     0  startup_stm32f10x_hd.o(.text)
    USART3_IRQHandler                        0x0800858b   Thumb Code     0  startup_stm32f10x_hd.o(.text)
    USBWakeUp_IRQHandler                     0x0800858b   Thumb Code     0  startup_stm32f10x_hd.o(.text)
    USB_HP_CAN1_TX_IRQHandler                0x0800858b   Thumb Code     0  startup_stm32f10x_hd.o(.text)
    USB_LP_CAN1_RX0_IRQHandler               0x0800858b   Thumb Code     0  startup_stm32f10x_hd.o(.text)
    WWDG_IRQHandler                          0x0800858b   Thumb Code     0  startup_stm32f10x_hd.o(.text)
    LCD_RegisterWrite                        0x08008599   Thumb Code    12  ra8876.o(.text)
    LCD_RegisterRead                         0x080085a5   Thumb Code    16  ra8876.o(.text)
    Select_Main_Window_24bpp                 0x080085b5   Thumb Code    24  ra8876.o(.text)
    Memory_XY_Mode                           0x080085cd   Thumb Code    24  ra8876.o(.text)
    Memory_24bpp_Mode                        0x080085e5   Thumb Code    28  ra8876.o(.text)
    Active_Window_WH                         0x08008601   Thumb Code    40  ra8876.o(.text)
    Active_Window_XY                         0x08008629   Thumb Code    40  ra8876.o(.text)
    Canvas_image_width                       0x08008651   Thumb Code    22  ra8876.o(.text)
    Canvas_Image_Start_address               0x08008667   Thumb Code    42  ra8876.o(.text)
    Main_Window_Start_XY                     0x08008691   Thumb Code    40  ra8876.o(.text)
    Main_Image_Width                         0x080086b9   Thumb Code    22  ra8876.o(.text)
    Main_Image_Start_Address                 0x080086cf   Thumb Code    42  ra8876.o(.text)
    LCD_VSYNC_Pulse_Width                    0x080086f9   Thumb Code    18  ra8876.o(.text)
    LCD_VSYNC_Start_Position                 0x0800870b   Thumb Code    18  ra8876.o(.text)
    LCD_Vertical_Non_Display                 0x0800871d   Thumb Code    30  ra8876.o(.text)
    LCD_HSYNC_Pulse_Width                    0x0800873b   Thumb Code    48  ra8876.o(.text)
    LCD_HSYNC_Start_Position                 0x0800876b   Thumb Code    44  ra8876.o(.text)
    LCD_Horizontal_Non_Display               0x08008797   Thumb Code    84  ra8876.o(.text)
    LCD_HorizontalWidth_VerticalHeight       0x080087eb   Thumb Code   144  ra8876.o(.text)
    DE_High_Active                           0x0800887b   Thumb Code    22  ra8876.o(.text)
    VSYNC_Low_Active                         0x08008891   Thumb Code    22  ra8876.o(.text)
    HSYNC_Low_Active                         0x080088a7   Thumb Code    22  ra8876.o(.text)
    PDATA_Set_RGB                            0x080088bd   Thumb Code    24  ra8876.o(.text)
    VSCAN_T_to_B                             0x080088d5   Thumb Code    24  ra8876.o(.text)
    HSCAN_L_to_R                             0x080088ed   Thumb Code    24  ra8876.o(.text)
    PCLK_Rising                              0x08008905   Thumb Code    24  ra8876.o(.text)
    Memory_Select_SDRAM                      0x0800891d   Thumb Code    26  ra8876.o(.text)
    Graphic_Mode                             0x08008937   Thumb Code    22  ra8876.o(.text)
    MemWrite_Left_Right_Top_Down             0x0800894d   Thumb Code    28  ra8876.o(.text)
    RGB_16b_16bpp                            0x08008969   Thumb Code    32  ra8876.o(.text)
    Host_Bus_16bit                           0x08008989   Thumb Code    24  ra8876.o(.text)
    TFT_24bit                                0x080089a1   Thumb Code    28  ra8876.o(.text)
    Check_SDRAM_Ready                        0x080089bd   Thumb Code    20  ra8876.o(.text)
    RA8876_SDRAM_initail                     0x080089d1   Thumb Code    62  ra8876.o(.text)
    RA8876_PLL_Initial                       0x08008a0f   Thumb Code   340  ra8876.o(.text)
    RA8876_initial                           0x08008b63   Thumb Code   378  ra8876.o(.text)
    Check_Mem_WR_FIFO_not_Full               0x08008cdd   Thumb Code    18  ra8876.o(.text)
    Check_Mem_WR_FIFO_Empty                  0x08008cef   Thumb Code    18  ra8876.o(.text)
    Check_Mem_RD_FIFO_not_Full               0x08008d01   Thumb Code    18  ra8876.o(.text)
    Check_Mem_RD_FIFO_not_Empty              0x08008d13   Thumb Code    18  ra8876.o(.text)
    Check_2D_Busy                            0x08008d25   Thumb Code    18  ra8876.o(.text)
    Power_Saving_Status                      0x08008d37   Thumb Code    22  ra8876.o(.text)
    Check_Power_is_Normal                    0x08008d4d   Thumb Code    18  ra8876.o(.text)
    Check_Power_is_Saving                    0x08008d5f   Thumb Code    34  ra8876.o(.text)
    Check_NO_Interrupt                       0x08008d81   Thumb Code    18  ra8876.o(.text)
    Check_Interrupt_Occur                    0x08008d93   Thumb Code    18  ra8876.o(.text)
    Check_Busy_Draw                          0x08008da5   Thumb Code    20  ra8876.o(.text)
    RA8876_SW_Reset                          0x08008db9   Thumb Code    40  ra8876.o(.text)
    Enable_PLL                               0x08008de1   Thumb Code    32  ra8876.o(.text)
    RA8876_Sleep                             0x08008e01   Thumb Code    24  ra8876.o(.text)
    RA8876_WakeUp                            0x08008e19   Thumb Code    24  ra8876.o(.text)
    Key_Scan_Enable                          0x08008e31   Thumb Code    24  ra8876.o(.text)
    Key_Scan_Disable                         0x08008e49   Thumb Code    24  ra8876.o(.text)
    TFT_18bit                                0x08008e61   Thumb Code    28  ra8876.o(.text)
    TFT_16bit                                0x08008e7d   Thumb Code    28  ra8876.o(.text)
    TFT_LVDS                                 0x08008e99   Thumb Code    28  ra8876.o(.text)
    RA8876_I2CM_Enable                       0x08008eb5   Thumb Code    24  ra8876.o(.text)
    RA8876_I2CM_Disable                      0x08008ecd   Thumb Code    24  ra8876.o(.text)
    Enable_SFlash_SPI                        0x08008ee5   Thumb Code    24  ra8876.o(.text)
    Disable_SFlash_SPI                       0x08008efd   Thumb Code    24  ra8876.o(.text)
    Host_Bus_8bit                            0x08008f15   Thumb Code    24  ra8876.o(.text)
    RGB_8b_8bpp                              0x08008f2d   Thumb Code    28  ra8876.o(.text)
    RGB_8b_16bpp                             0x08008f49   Thumb Code    28  ra8876.o(.text)
    RGB_8b_24bpp                             0x08008f65   Thumb Code    28  ra8876.o(.text)
    RGB_16b_8bpp                             0x08008f81   Thumb Code    28  ra8876.o(.text)
    RGB_16b_24bpp_mode1                      0x08008f9d   Thumb Code    28  ra8876.o(.text)
    RGB_16b_24bpp_mode2                      0x08008fb9   Thumb Code    28  ra8876.o(.text)
    MemRead_Left_Right_Top_Down              0x08008fd5   Thumb Code    28  ra8876.o(.text)
    MemRead_Right_Left_Top_Down              0x08008ff1   Thumb Code    28  ra8876.o(.text)
    MemRead_Top_Down_Left_Right              0x0800900d   Thumb Code    28  ra8876.o(.text)
    MemRead_Down_Top_Left_Right              0x08009029   Thumb Code    28  ra8876.o(.text)
    MemWrite_Right_Left_Top_Down             0x08009045   Thumb Code    28  ra8876.o(.text)
    MemWrite_Top_Down_Left_Right             0x08009061   Thumb Code    28  ra8876.o(.text)
    MemWrite_Down_Top_Left_Right             0x0800907d   Thumb Code    28  ra8876.o(.text)
    Interrupt_Active_Low                     0x08009099   Thumb Code    22  ra8876.o(.text)
    Interrupt_Active_High                    0x080090af   Thumb Code    22  ra8876.o(.text)
    ExtInterrupt_Debounce                    0x080090c5   Thumb Code    22  ra8876.o(.text)
    ExtInterrupt_Nodebounce                  0x080090db   Thumb Code    22  ra8876.o(.text)
    ExtInterrupt_Input_Low_Level_Trigger     0x080090f1   Thumb Code    26  ra8876.o(.text)
    ExtInterrupt_Input_High_Level_Trigger    0x0800910b   Thumb Code    26  ra8876.o(.text)
    ExtInterrupt_Input_Falling_Edge_Trigger  0x08009125   Thumb Code    26  ra8876.o(.text)
    ExtInterrupt_Input_Rising_Edge_Trigger   0x0800913f   Thumb Code    26  ra8876.o(.text)
    LVDS_Format1                             0x08009159   Thumb Code    22  ra8876.o(.text)
    LVDS_Format2                             0x0800916f   Thumb Code    22  ra8876.o(.text)
    Text_Mode                                0x08009185   Thumb Code    22  ra8876.o(.text)
    Memory_Select_Graphic_Cursor_RAM         0x0800919b   Thumb Code    30  ra8876.o(.text)
    Memory_Select_Color_Palette_RAM          0x080091b9   Thumb Code    26  ra8876.o(.text)
    Enable_Resume_Interrupt                  0x080091d3   Thumb Code    22  ra8876.o(.text)
    Disable_Resume_Interrupt                 0x080091e9   Thumb Code    22  ra8876.o(.text)
    Enable_ExtInterrupt_Input                0x080091ff   Thumb Code    22  ra8876.o(.text)
    Disable_ExtInterrupt_Input               0x08009215   Thumb Code    22  ra8876.o(.text)
    Enable_I2CM_Interrupt                    0x0800922b   Thumb Code    22  ra8876.o(.text)
    Disable_I2CM_Interrupt                   0x08009241   Thumb Code    22  ra8876.o(.text)
    Enable_Vsync_Interrupt                   0x08009257   Thumb Code    22  ra8876.o(.text)
    Disable_Vsync_Interrupt                  0x0800926d   Thumb Code    22  ra8876.o(.text)
    Enable_KeyScan_Interrupt                 0x08009283   Thumb Code    22  ra8876.o(.text)
    Disable_KeyScan_Interrupt                0x08009299   Thumb Code    22  ra8876.o(.text)
    Enable_DMA_Draw_BTE_Interrupt            0x080092af   Thumb Code    22  ra8876.o(.text)
    Disable_DMA_Draw_BTE_Interrupt           0x080092c5   Thumb Code    22  ra8876.o(.text)
    Enable_PWM1_Interrupt                    0x080092db   Thumb Code    22  ra8876.o(.text)
    Disable_PWM1_Interrupt                   0x080092f1   Thumb Code    22  ra8876.o(.text)
    Enable_PWM0_Interrupt                    0x08009307   Thumb Code    22  ra8876.o(.text)
    Disable_PWM0_Interrupt                   0x0800931d   Thumb Code    22  ra8876.o(.text)
    Read_Interrupt_status                    0x08009333   Thumb Code    14  ra8876.o(.text)
    Clear_Resume_Interrupt_Flag              0x08009341   Thumb Code    22  ra8876.o(.text)
    Clear_ExtInterrupt_Input_Flag            0x08009357   Thumb Code    22  ra8876.o(.text)
    Clear_I2CM_Interrupt_Flag                0x0800936d   Thumb Code    22  ra8876.o(.text)
    Clear_Vsync_Interrupt_Flag               0x08009383   Thumb Code    22  ra8876.o(.text)
    Clear_KeyScan_Interrupt_Flag             0x08009399   Thumb Code    22  ra8876.o(.text)
    Clear_DMA_Draw_BTE_Interrupt_Flag        0x080093af   Thumb Code    22  ra8876.o(.text)
    Clear_PWM1_Interrupt_Flag                0x080093c5   Thumb Code    22  ra8876.o(.text)
    Clear_PWM0_Interrupt_Flag                0x080093db   Thumb Code    22  ra8876.o(.text)
    Mask_Resume_Interrupt_Flag               0x080093f1   Thumb Code    24  ra8876.o(.text)
    Mask_ExtInterrupt_Input_Flag             0x08009409   Thumb Code    24  ra8876.o(.text)
    Mask_I2CM_Interrupt_Flag                 0x08009421   Thumb Code    24  ra8876.o(.text)
    Mask_Vsync_Interrupt_Flag                0x08009439   Thumb Code    24  ra8876.o(.text)
    Mask_KeyScan_Interrupt_Flag              0x08009451   Thumb Code    24  ra8876.o(.text)
    Mask_DMA_Draw_BTE_Interrupt_Flag         0x08009469   Thumb Code    24  ra8876.o(.text)
    Mask_PWM1_Interrupt_Flag                 0x08009481   Thumb Code    24  ra8876.o(.text)
    Mask_PWM0_Interrupt_Flag                 0x08009499   Thumb Code    24  ra8876.o(.text)
    Enable_Resume_Interrupt_Flag             0x080094b1   Thumb Code    24  ra8876.o(.text)
    Enable_ExtInterrupt_Inpur_Flag           0x080094c9   Thumb Code    24  ra8876.o(.text)
    Enable_I2CM_Interrupt_Flag               0x080094e1   Thumb Code    24  ra8876.o(.text)
    Enable_Vsync_Interrupt_Flag              0x080094f9   Thumb Code    24  ra8876.o(.text)
    Enable_KeyScan_Interrupt_Flag            0x08009511   Thumb Code    24  ra8876.o(.text)
    Enable_DMA_Draw_BTE_Interrupt_Flag       0x08009529   Thumb Code    24  ra8876.o(.text)
    Enable_PWM1_Interrupt_Flag               0x08009541   Thumb Code    24  ra8876.o(.text)
    Enable_PWM0_Interrupt_Flag               0x08009559   Thumb Code    24  ra8876.o(.text)
    Enable_GPIOF_PullUp                      0x08009571   Thumb Code    24  ra8876.o(.text)
    Enable_GPIOE_PullUp                      0x08009589   Thumb Code    28  ra8876.o(.text)
    Enable_GPIOD_PullUp                      0x080095a5   Thumb Code    24  ra8876.o(.text)
    Enable_GPIOC_PullUp                      0x080095bd   Thumb Code    24  ra8876.o(.text)
    Enable_XDB15_8_PullUp                    0x080095d5   Thumb Code    24  ra8876.o(.text)
    Enable_XDB7_0_PullUp                     0x080095ed   Thumb Code    24  ra8876.o(.text)
    Disable_GPIOF_PullUp                     0x08009605   Thumb Code    24  ra8876.o(.text)
    Disable_GPIOE_PullUp                     0x0800961d   Thumb Code    24  ra8876.o(.text)
    Disable_GPIOD_PullUp                     0x08009635   Thumb Code    24  ra8876.o(.text)
    Disable_GPIOC_PullUp                     0x0800964d   Thumb Code    24  ra8876.o(.text)
    Disable_XDB15_8_PullUp                   0x08009665   Thumb Code    24  ra8876.o(.text)
    Disable_XDB7_0_PullUp                    0x0800967d   Thumb Code    24  ra8876.o(.text)
    XPDAT18_Set_GPIO_D7                      0x08009695   Thumb Code    24  ra8876.o(.text)
    XPDAT18_Set_KOUT4                        0x080096ad   Thumb Code    24  ra8876.o(.text)
    XPDAT17_Set_GPIO_D5                      0x080096c5   Thumb Code    24  ra8876.o(.text)
    XPDAT17_Set_KOUT2                        0x080096dd   Thumb Code    24  ra8876.o(.text)
    XPDAT16_Set_GPIO_D4                      0x080096f5   Thumb Code    24  ra8876.o(.text)
    XPDAT16_Set_KOUT1                        0x0800970d   Thumb Code    24  ra8876.o(.text)
    XPDAT9_Set_GPIO_D3                       0x08009725   Thumb Code    24  ra8876.o(.text)
    XPDAT9_Set_KOUT3                         0x0800973d   Thumb Code    24  ra8876.o(.text)
    XPDAT8_Set_GPIO_D2                       0x08009755   Thumb Code    24  ra8876.o(.text)
    XPDAT8_Set_KIN3                          0x0800976d   Thumb Code    24  ra8876.o(.text)
    XPDAT2_Set_GPIO_D6                       0x08009785   Thumb Code    24  ra8876.o(.text)
    XPDAT2_Set_KIN4                          0x0800979d   Thumb Code    24  ra8876.o(.text)
    XPDAT1_Set_GPIO_D1                       0x080097b5   Thumb Code    24  ra8876.o(.text)
    XPDAT1_Set_KIN2                          0x080097cd   Thumb Code    24  ra8876.o(.text)
    XPDAT0_Set_GPIO_D0                       0x080097e5   Thumb Code    24  ra8876.o(.text)
    XPDAT0_Set_KIN1                          0x080097fd   Thumb Code    24  ra8876.o(.text)
    Enable_PIP1                              0x08009815   Thumb Code    24  ra8876.o(.text)
    Disable_PIP1                             0x0800982d   Thumb Code    24  ra8876.o(.text)
    Enable_PIP2                              0x08009845   Thumb Code    24  ra8876.o(.text)
    Disable_PIP2                             0x0800985d   Thumb Code    24  ra8876.o(.text)
    Select_PIP1_Parameter                    0x08009875   Thumb Code    24  ra8876.o(.text)
    Select_PIP2_Parameter                    0x0800988d   Thumb Code    24  ra8876.o(.text)
    Select_Main_Window_8bpp                  0x080098a5   Thumb Code    28  ra8876.o(.text)
    Select_Main_Window_16bpp                 0x080098c1   Thumb Code    28  ra8876.o(.text)
    Select_PIP2_Window_8bpp                  0x080098dd   Thumb Code    28  ra8876.o(.text)
    Select_PIP2_Window_16bpp                 0x080098f9   Thumb Code    28  ra8876.o(.text)
    Select_PIP2_Window_24bpp                 0x08009915   Thumb Code    28  ra8876.o(.text)
    Select_PIP1_Window_8bpp                  0x08009931   Thumb Code    28  ra8876.o(.text)
    Select_PIP1_Window_16bpp                 0x0800994d   Thumb Code    28  ra8876.o(.text)
    Select_PIP1_Window_24bpp                 0x08009969   Thumb Code    28  ra8876.o(.text)
    PCLK_Falling                             0x08009985   Thumb Code    28  ra8876.o(.text)
    Display_ON                               0x080099a1   Thumb Code    24  ra8876.o(.text)
    Display_OFF                              0x080099b9   Thumb Code    24  ra8876.o(.text)
    Color_Bar_ON                             0x080099d1   Thumb Code    24  ra8876.o(.text)
    Color_Bar_OFF                            0x080099e9   Thumb Code    24  ra8876.o(.text)
    HSCAN_R_to_L                             0x08009a01   Thumb Code    24  ra8876.o(.text)
    VSCAN_B_to_T                             0x08009a19   Thumb Code    24  ra8876.o(.text)
    PDATA_Set_RBG                            0x08009a31   Thumb Code    28  ra8876.o(.text)
    PDATA_Set_GRB                            0x08009a4d   Thumb Code    28  ra8876.o(.text)
    PDATA_Set_GBR                            0x08009a69   Thumb Code    32  ra8876.o(.text)
    PDATA_Set_BRG                            0x08009a89   Thumb Code    28  ra8876.o(.text)
    PDATA_Set_BGR                            0x08009aa5   Thumb Code    32  ra8876.o(.text)
    PDATA_IDLE_STATE                         0x08009ac5   Thumb Code    24  ra8876.o(.text)
    HSYNC_High_Active                        0x08009add   Thumb Code    22  ra8876.o(.text)
    VSYNC_High_Active                        0x08009af3   Thumb Code    22  ra8876.o(.text)
    DE_Low_Active                            0x08009b09   Thumb Code    22  ra8876.o(.text)
    Idle_DE_Low                              0x08009b1f   Thumb Code    22  ra8876.o(.text)
    Idle_DE_High                             0x08009b35   Thumb Code    22  ra8876.o(.text)
    Idle_PCLK_Low                            0x08009b4b   Thumb Code    22  ra8876.o(.text)
    Idle_PCLK_High                           0x08009b61   Thumb Code    22  ra8876.o(.text)
    Idle_PDAT_Low                            0x08009b77   Thumb Code    22  ra8876.o(.text)
    Idle_PDAT_High                           0x08009b8d   Thumb Code    22  ra8876.o(.text)
    Idle_HSYNC_Low                           0x08009ba3   Thumb Code    22  ra8876.o(.text)
    Idle_HSYNC_High                          0x08009bb9   Thumb Code    22  ra8876.o(.text)
    Idle_VSYNC_Low                           0x08009bcf   Thumb Code    22  ra8876.o(.text)
    Idle_VSYNC_High                          0x08009be5   Thumb Code    22  ra8876.o(.text)
    PIP_Display_Start_XY                     0x08009bfb   Thumb Code    40  ra8876.o(.text)
    PIP_Image_Start_Address                  0x08009c23   Thumb Code    42  ra8876.o(.text)
    PIP_Image_Width                          0x08009c4d   Thumb Code    22  ra8876.o(.text)
    PIP_Window_Image_Start_XY                0x08009c63   Thumb Code    40  ra8876.o(.text)
    PIP_Window_Width_Height                  0x08009c8b   Thumb Code    40  ra8876.o(.text)
    Enable_Graphic_Cursor                    0x08009cb3   Thumb Code    24  ra8876.o(.text)
    Disable_Graphic_Cursor                   0x08009ccb   Thumb Code    24  ra8876.o(.text)
    Select_Graphic_Cursor_1                  0x08009ce3   Thumb Code    28  ra8876.o(.text)
    Select_Graphic_Cursor_2                  0x08009cff   Thumb Code    28  ra8876.o(.text)
    Select_Graphic_Cursor_3                  0x08009d1b   Thumb Code    28  ra8876.o(.text)
    Select_Graphic_Cursor_4                  0x08009d37   Thumb Code    28  ra8876.o(.text)
    Enable_Text_Cursor                       0x08009d53   Thumb Code    24  ra8876.o(.text)
    Disable_Text_Cursor                      0x08009d6b   Thumb Code    24  ra8876.o(.text)
    Enable_Text_Cursor_Blinking              0x08009d83   Thumb Code    30  ra8876.o(.text)
    Disable_Text_Cursor_Blinking             0x08009da1   Thumb Code    24  ra8876.o(.text)
    Blinking_Time_Frames                     0x08009db9   Thumb Code    14  ra8876.o(.text)
    Text_Cursor_H_V                          0x08009dc7   Thumb Code    22  ra8876.o(.text)
    Graphic_Cursor_XY                        0x08009ddd   Thumb Code    40  ra8876.o(.text)
    Set_Graphic_Cursor_Color_1               0x08009e05   Thumb Code    14  ra8876.o(.text)
    Set_Graphic_Cursor_Color_2               0x08009e13   Thumb Code    14  ra8876.o(.text)
    Select_Write_Data_Position               0x08009e21   Thumb Code    24  ra8876.o(.text)
    Select_Read_Data_Position                0x08009e39   Thumb Code    24  ra8876.o(.text)
    Memory_Linear_Mode                       0x08009e51   Thumb Code    24  ra8876.o(.text)
    Memory_8bpp_Mode                         0x08009e69   Thumb Code    28  ra8876.o(.text)
    Memory_16bpp_Mode                        0x08009e85   Thumb Code    28  ra8876.o(.text)
    Goto_Pixel_XY                            0x08009ea1   Thumb Code    40  ra8876.o(.text)
    Goto_Linear_Addr                         0x08009ec9   Thumb Code    42  ra8876.o(.text)
    Goto_Text_XY                             0x08009ef3   Thumb Code    40  ra8876.o(.text)
    Start_Line                               0x08009f1b   Thumb Code    22  ra8876.o(.text)
    Start_Triangle                           0x08009f31   Thumb Code    22  ra8876.o(.text)
    Start_Triangle_Fill                      0x08009f47   Thumb Code    22  ra8876.o(.text)
    Line_Start_XY                            0x08009f5d   Thumb Code    46  ra8876.o(.text)
    Line_End_XY                              0x08009f8b   Thumb Code    44  ra8876.o(.text)
    Triangle_Point1_XY                       0x08009fb7   Thumb Code    46  ra8876.o(.text)
    Triangle_Point2_XY                       0x08009fe5   Thumb Code    44  ra8876.o(.text)
    Triangle_Point3_XY                       0x0800a011   Thumb Code    46  ra8876.o(.text)
    Square_Start_XY                          0x0800a03f   Thumb Code    46  ra8876.o(.text)
    Square_End_XY                            0x0800a06d   Thumb Code    44  ra8876.o(.text)
    Start_Circle_or_Ellipse                  0x0800a099   Thumb Code    20  ra8876.o(.text)
    Start_Circle_or_Ellipse_Fill             0x0800a0ad   Thumb Code    20  ra8876.o(.text)
    Start_Left_Down_Curve                    0x0800a0c1   Thumb Code    20  ra8876.o(.text)
    Start_Left_Up_Curve                      0x0800a0d5   Thumb Code    20  ra8876.o(.text)
    Start_Right_Up_Curve                     0x0800a0e9   Thumb Code    20  ra8876.o(.text)
    Start_Right_Down_Curve                   0x0800a0fd   Thumb Code    20  ra8876.o(.text)
    Start_Left_Down_Curve_Fill               0x0800a111   Thumb Code    20  ra8876.o(.text)
    Start_Left_Up_Curve_Fill                 0x0800a125   Thumb Code    20  ra8876.o(.text)
    Start_Right_Up_Curve_Fill                0x0800a139   Thumb Code    20  ra8876.o(.text)
    Start_Right_Down_Curve_Fill              0x0800a14d   Thumb Code    20  ra8876.o(.text)
    Start_Square                             0x0800a161   Thumb Code    20  ra8876.o(.text)
    Start_Square_Fill                        0x0800a175   Thumb Code    24  ra8876.o(.text)
    Start_Circle_Square                      0x0800a18d   Thumb Code    20  ra8876.o(.text)
    Start_Circle_Square_Fill                 0x0800a1a1   Thumb Code    20  ra8876.o(.text)
    Circle_Center_XY                         0x0800a1b5   Thumb Code    44  ra8876.o(.text)
    Ellipse_Center_XY                        0x0800a1e1   Thumb Code    44  ra8876.o(.text)
    Circle_Radius_R                          0x0800a20d   Thumb Code    46  ra8876.o(.text)
    Ellipse_Radius_RxRy                      0x0800a23b   Thumb Code    46  ra8876.o(.text)
    Circle_Square_Radius_RxRy                0x0800a269   Thumb Code    46  ra8876.o(.text)
    Set_PWM_Prescaler_1_to_256               0x0800a297   Thumb Code    18  ra8876.o(.text)
    Select_PWM1_Clock_Divided_By_1           0x0800a2a9   Thumb Code    28  ra8876.o(.text)
    Select_PWM1_Clock_Divided_By_2           0x0800a2c5   Thumb Code    28  ra8876.o(.text)
    Select_PWM1_Clock_Divided_By_4           0x0800a2e1   Thumb Code    28  ra8876.o(.text)
    Select_PWM1_Clock_Divided_By_8           0x0800a2fd   Thumb Code    28  ra8876.o(.text)
    Select_PWM0_Clock_Divided_By_1           0x0800a319   Thumb Code    28  ra8876.o(.text)
    Select_PWM0_Clock_Divided_By_2           0x0800a335   Thumb Code    28  ra8876.o(.text)
    Select_PWM0_Clock_Divided_By_4           0x0800a351   Thumb Code    28  ra8876.o(.text)
    Select_PWM0_Clock_Divided_By_8           0x0800a36d   Thumb Code    28  ra8876.o(.text)
    Select_PWM1_is_ErrorFlag                 0x0800a389   Thumb Code    24  ra8876.o(.text)
    Select_PWM1                              0x0800a3a1   Thumb Code    28  ra8876.o(.text)
    Select_PWM1_is_Osc_Clock                 0x0800a3bd   Thumb Code    28  ra8876.o(.text)
    Select_PWM0_is_GPIO_C7                   0x0800a3d9   Thumb Code    24  ra8876.o(.text)
    Select_PWM0                              0x0800a3f1   Thumb Code    28  ra8876.o(.text)
    Select_PWM0_is_Core_Clock                0x0800a40d   Thumb Code    28  ra8876.o(.text)
    Enable_PWM1_Inverter                     0x0800a429   Thumb Code    22  ra8876.o(.text)
    Disable_PWM1_Inverter                    0x0800a43f   Thumb Code    22  ra8876.o(.text)
    Auto_Reload_PWM1                         0x0800a455   Thumb Code    22  ra8876.o(.text)
    One_Shot_PWM1                            0x0800a46b   Thumb Code    22  ra8876.o(.text)
    Start_PWM1                               0x0800a481   Thumb Code    22  ra8876.o(.text)
    Stop_PWM1                                0x0800a497   Thumb Code    22  ra8876.o(.text)
    Enable_PWM0_Dead_Zone                    0x0800a4ad   Thumb Code    22  ra8876.o(.text)
    Disable_PWM0_Dead_Zone                   0x0800a4c3   Thumb Code    22  ra8876.o(.text)
    Enable_PWM0_Inverter                     0x0800a4d9   Thumb Code    22  ra8876.o(.text)
    Disable_PWM0_Inverter                    0x0800a4ef   Thumb Code    22  ra8876.o(.text)
    Auto_Reload_PWM0                         0x0800a505   Thumb Code    22  ra8876.o(.text)
    One_Shot_PWM0                            0x0800a51b   Thumb Code    22  ra8876.o(.text)
    Start_PWM0                               0x0800a531   Thumb Code    22  ra8876.o(.text)
    Stop_PWM0                                0x0800a547   Thumb Code    22  ra8876.o(.text)
    Set_Timer0_Dead_Zone_Length              0x0800a55d   Thumb Code    14  ra8876.o(.text)
    Set_Timer0_Compare_Buffer                0x0800a56b   Thumb Code    30  ra8876.o(.text)
    Set_Timer0_Count_Buffer                  0x0800a589   Thumb Code    24  ra8876.o(.text)
    Set_Timer1_Compare_Buffer                0x0800a5a1   Thumb Code    22  ra8876.o(.text)
    Set_Timer1_Count_Buffer                  0x0800a5b7   Thumb Code    24  ra8876.o(.text)
    BTE_Enable                               0x0800a5cf   Thumb Code    24  ra8876.o(.text)
    BTE_Disable                              0x0800a5e7   Thumb Code    24  ra8876.o(.text)
    Check_BTE_Busy                           0x0800a5ff   Thumb Code    20  ra8876.o(.text)
    Pattern_Format_8X8                       0x0800a613   Thumb Code    24  ra8876.o(.text)
    Pattern_Format_16X16                     0x0800a62b   Thumb Code    24  ra8876.o(.text)
    BTE_ROP_Code                             0x0800a643   Thumb Code    32  ra8876.o(.text)
    BTE_Operation_Code                       0x0800a663   Thumb Code    28  ra8876.o(.text)
    BTE_S0_Color_8bpp                        0x0800a67f   Thumb Code    28  ra8876.o(.text)
    BTE_S0_Color_16bpp                       0x0800a69b   Thumb Code    28  ra8876.o(.text)
    BTE_S0_Color_24bpp                       0x0800a6b7   Thumb Code    24  ra8876.o(.text)
    BTE_S1_Color_8bpp                        0x0800a6cf   Thumb Code    32  ra8876.o(.text)
    BTE_S1_Color_16bpp                       0x0800a6ef   Thumb Code    32  ra8876.o(.text)
    BTE_S1_Color_24bpp                       0x0800a70f   Thumb Code    32  ra8876.o(.text)
    BTE_S1_Color_Constant                    0x0800a72f   Thumb Code    32  ra8876.o(.text)
    BTE_S1_Color_8bit_Alpha                  0x0800a74f   Thumb Code    32  ra8876.o(.text)
    BTE_S1_Color_16bit_Alpha                 0x0800a76f   Thumb Code    32  ra8876.o(.text)
    BTE_Destination_Color_8bpp               0x0800a78f   Thumb Code    28  ra8876.o(.text)
    BTE_Destination_Color_16bpp              0x0800a7ab   Thumb Code    28  ra8876.o(.text)
    BTE_Destination_Color_24bpp              0x0800a7c7   Thumb Code    24  ra8876.o(.text)
    BTE_S0_Memory_Start_Address              0x0800a7df   Thumb Code    42  ra8876.o(.text)
    BTE_S0_Image_Width                       0x0800a809   Thumb Code    22  ra8876.o(.text)
    BTE_S0_Window_Start_XY                   0x0800a81f   Thumb Code    40  ra8876.o(.text)
    BTE_S1_Memory_Start_Address              0x0800a847   Thumb Code    42  ra8876.o(.text)
    S1_Constant_color_256                    0x0800a871   Thumb Code    38  ra8876.o(.text)
    S1_Constant_color_65k                    0x0800a897   Thumb Code    50  ra8876.o(.text)
    S1_Constant_color_16M                    0x0800a8c9   Thumb Code    44  ra8876.o(.text)
    BTE_S1_Image_Width                       0x0800a8f5   Thumb Code    22  ra8876.o(.text)
    BTE_S1_Window_Start_XY                   0x0800a90b   Thumb Code    40  ra8876.o(.text)
    BTE_Destination_Memory_Start_Address     0x0800a933   Thumb Code    42  ra8876.o(.text)
    BTE_Destination_Image_Width              0x0800a95d   Thumb Code    28  ra8876.o(.text)
    BTE_Destination_Window_Start_XY          0x0800a979   Thumb Code    40  ra8876.o(.text)
    BTE_Window_Size                          0x0800a9a1   Thumb Code    40  ra8876.o(.text)
    BTE_Alpha_Blending_Effect                0x0800a9c9   Thumb Code    14  ra8876.o(.text)
    Start_SFI_DMA                            0x0800a9d7   Thumb Code    22  ra8876.o(.text)
    Check_Busy_SFI_DMA                       0x0800a9ed   Thumb Code    22  ra8876.o(.text)
    Select_SFI_0                             0x0800aa03   Thumb Code    24  ra8876.o(.text)
    Select_SFI_1                             0x0800aa1b   Thumb Code    24  ra8876.o(.text)
    Select_SFI_Font_Mode                     0x0800aa33   Thumb Code    24  ra8876.o(.text)
    Select_SFI_DMA_Mode                      0x0800aa4b   Thumb Code    24  ra8876.o(.text)
    Select_SFI_24bit_Address                 0x0800aa63   Thumb Code    24  ra8876.o(.text)
    Select_SFI_32bit_Address                 0x0800aa7b   Thumb Code    24  ra8876.o(.text)
    Select_SFI_Waveform_Mode_0               0x0800aa93   Thumb Code    24  ra8876.o(.text)
    Select_SFI_Waveform_Mode_3               0x0800aaab   Thumb Code    24  ra8876.o(.text)
    Select_SFI_0_DummyRead                   0x0800aac3   Thumb Code    24  ra8876.o(.text)
    Select_SFI_8_DummyRead                   0x0800aadb   Thumb Code    28  ra8876.o(.text)
    Select_SFI_16_DummyRead                  0x0800aaf7   Thumb Code    28  ra8876.o(.text)
    Select_SFI_24_DummyRead                  0x0800ab13   Thumb Code    24  ra8876.o(.text)
    Select_SFI_Single_Mode                   0x0800ab2b   Thumb Code    24  ra8876.o(.text)
    Select_SFI_Dual_Mode0                    0x0800ab43   Thumb Code    28  ra8876.o(.text)
    Select_SFI_Dual_Mode1                    0x0800ab5f   Thumb Code    24  ra8876.o(.text)
    Rx_FIFO_Empty_Flag                       0x0800ab77   Thumb Code    28  ra8876.o(.text)
    SPI_Master_FIFO_Data_Get                 0x0800ab93   Thumb Code    30  ra8876.o(.text)
    Tx_FIFO_Empty_Flag                       0x0800abb1   Thumb Code    28  ra8876.o(.text)
    SPI_Master_FIFO_Data_Put                 0x0800abcd   Thumb Code    36  ra8876.o(.text)
    Mask_SPI_Master_Interrupt_Flag           0x0800abf1   Thumb Code    24  ra8876.o(.text)
    Select_nSS_drive_on_xnsfcs0              0x0800ac09   Thumb Code    24  ra8876.o(.text)
    Select_nSS_drive_on_xnsfcs1              0x0800ac21   Thumb Code    24  ra8876.o(.text)
    nSS_Inactive                             0x0800ac39   Thumb Code    24  ra8876.o(.text)
    nSS_Active                               0x0800ac51   Thumb Code    24  ra8876.o(.text)
    OVFIRQEN_Enable                          0x0800ac69   Thumb Code    24  ra8876.o(.text)
    EMTIRQEN_Enable                          0x0800ac81   Thumb Code    24  ra8876.o(.text)
    Reset_CPOL                               0x0800ac99   Thumb Code    24  ra8876.o(.text)
    Set_CPOL                                 0x0800acb1   Thumb Code    24  ra8876.o(.text)
    Reset_CPHA                               0x0800acc9   Thumb Code    24  ra8876.o(.text)
    Set_CPHA                                 0x0800ace1   Thumb Code    24  ra8876.o(.text)
    Tx_FIFO_Full_Flag                        0x0800acf9   Thumb Code    28  ra8876.o(.text)
    Rx_FIFO_full_flag                        0x0800ad15   Thumb Code    28  ra8876.o(.text)
    OVFI_Flag                                0x0800ad31   Thumb Code    28  ra8876.o(.text)
    Clear_OVFI_Flag                          0x0800ad4d   Thumb Code    24  ra8876.o(.text)
    EMTI_Flag                                0x0800ad65   Thumb Code    28  ra8876.o(.text)
    Clear_EMTI_Flag                          0x0800ad81   Thumb Code    24  ra8876.o(.text)
    SPI_Clock_Period                         0x0800ad99   Thumb Code    12  ra8876.o(.text)
    SFI_DMA_Source_Start_Address             0x0800ada5   Thumb Code    64  ra8876.o(.text)
    SFI_DMA_Destination_Start_Address        0x0800ade5   Thumb Code    54  ra8876.o(.text)
    SFI_DMA_Destination_Upper_Left_Corner    0x0800ae1b   Thumb Code    44  ra8876.o(.text)
    SFI_DMA_Transfer_Number                  0x0800ae47   Thumb Code    56  ra8876.o(.text)
    SFI_DMA_Transfer_Width_Height            0x0800ae7f   Thumb Code    44  ra8876.o(.text)
    SFI_DMA_Source_Width                     0x0800aeab   Thumb Code    24  ra8876.o(.text)
    Font_Select_UserDefine_Mode              0x0800aec3   Thumb Code    26  ra8876.o(.text)
    CGROM_Select_Internal_CGROM              0x0800aedd   Thumb Code    26  ra8876.o(.text)
    CGROM_Select_Genitop_FontROM             0x0800aef7   Thumb Code    26  ra8876.o(.text)
    Font_Select_8x16_16x16                   0x0800af11   Thumb Code    26  ra8876.o(.text)
    Font_Select_12x24_24x24                  0x0800af2b   Thumb Code    26  ra8876.o(.text)
    Font_Select_16x32_32x32                  0x0800af45   Thumb Code    26  ra8876.o(.text)
    Internal_CGROM_Select_ISOIEC8859_1       0x0800af5f   Thumb Code    26  ra8876.o(.text)
    Internal_CGROM_Select_ISOIEC8859_2       0x0800af79   Thumb Code    26  ra8876.o(.text)
    Internal_CGROM_Select_ISOIEC8859_3       0x0800af93   Thumb Code    26  ra8876.o(.text)
    Internal_CGROM_Select_ISOIEC8859_4       0x0800afad   Thumb Code    26  ra8876.o(.text)
    Enable_Font_Alignment                    0x0800afc7   Thumb Code    24  ra8876.o(.text)
    Disable_Font_Alignment                   0x0800afdf   Thumb Code    24  ra8876.o(.text)
    Font_Background_select_Transparency      0x0800aff7   Thumb Code    24  ra8876.o(.text)
    Font_Background_select_Color             0x0800b00f   Thumb Code    24  ra8876.o(.text)
    Font_0_degree                            0x0800b027   Thumb Code    24  ra8876.o(.text)
    Font_90_degree                           0x0800b03f   Thumb Code    24  ra8876.o(.text)
    Font_Width_X1                            0x0800b057   Thumb Code    28  ra8876.o(.text)
    Font_Width_X2                            0x0800b073   Thumb Code    28  ra8876.o(.text)
    Font_Width_X3                            0x0800b08f   Thumb Code    28  ra8876.o(.text)
    Font_Width_X4                            0x0800b0ab   Thumb Code    28  ra8876.o(.text)
    Font_Height_X1                           0x0800b0c7   Thumb Code    28  ra8876.o(.text)
    Font_Height_X2                           0x0800b0e3   Thumb Code    28  ra8876.o(.text)
    Font_Height_X3                           0x0800b0ff   Thumb Code    28  ra8876.o(.text)
    Font_Height_X4                           0x0800b11b   Thumb Code    28  ra8876.o(.text)
    GTFont_Select_GT21L16TW_GT21H16T1W       0x0800b137   Thumb Code    32  ra8876.o(.text)
    GTFont_Select_GT23L16U2W                 0x0800b157   Thumb Code    32  ra8876.o(.text)
    GTFont_Select_GT23L24T3Y_GT23H24T3Y      0x0800b177   Thumb Code    32  ra8876.o(.text)
    GTFont_Select_GT23L24M1Z                 0x0800b197   Thumb Code    38  ra8876.o(.text)
    GTFont_Select_GT23L32S4W_GT23H32S4W      0x0800b1bd   Thumb Code    32  ra8876.o(.text)
    GTFont_Select_GT20L24F6Y                 0x0800b1dd   Thumb Code    32  ra8876.o(.text)
    GTFont_Select_GT21L24S1W                 0x0800b1fd   Thumb Code    32  ra8876.o(.text)
    GTFont_Select_GT22L16A1Y                 0x0800b21d   Thumb Code    32  ra8876.o(.text)
    Set_GTFont_Decoder                       0x0800b23d   Thumb Code    14  ra8876.o(.text)
    Font_Line_Distance                       0x0800b24b   Thumb Code    14  ra8876.o(.text)
    Set_Font_to_Font_Width                   0x0800b259   Thumb Code    14  ra8876.o(.text)
    Foreground_RGB                           0x0800b267   Thumb Code    32  ra8876.o(.text)
    Foreground_color_256                     0x0800b287   Thumb Code    38  ra8876.o(.text)
    Foreground_color_65k                     0x0800b2ad   Thumb Code    48  ra8876.o(.text)
    Foreground_color_16M                     0x0800b2dd   Thumb Code    42  ra8876.o(.text)
    Background_RGB                           0x0800b307   Thumb Code    32  ra8876.o(.text)
    Background_color_256                     0x0800b327   Thumb Code    38  ra8876.o(.text)
    Background_color_65k                     0x0800b34d   Thumb Code    48  ra8876.o(.text)
    Background_color_16M                     0x0800b37d   Thumb Code    42  ra8876.o(.text)
    CGRAM_Start_address                      0x0800b3a7   Thumb Code    56  ra8876.o(.text)
    Power_Normal_Mode                        0x0800b3df   Thumb Code    16  ra8876.o(.text)
    Power_Saving_Standby_Mode                0x0800b3ef   Thumb Code    30  ra8876.o(.text)
    Power_Saving_Suspend_Mode                0x0800b40d   Thumb Code    16  ra8876.o(.text)
    Power_Saving_Sleep_Mode                  0x0800b41d   Thumb Code    16  ra8876.o(.text)
    RA8876_I2CM_Clock_Prescale               0x0800b42d   Thumb Code    24  ra8876.o(.text)
    RA8876_I2CM_Transmit_Data                0x0800b445   Thumb Code    14  ra8876.o(.text)
    RA8876_I2CM_Receiver_Data                0x0800b453   Thumb Code    16  ra8876.o(.text)
    RA8876_I2CM_Stop                         0x0800b463   Thumb Code    10  ra8876.o(.text)
    RA8876_I2CM_Read_With_Ack                0x0800b46d   Thumb Code    10  ra8876.o(.text)
    RA8876_I2CM_Read_With_Nack               0x0800b477   Thumb Code    10  ra8876.o(.text)
    RA8876_I2CM_Write_With_Start             0x0800b481   Thumb Code    10  ra8876.o(.text)
    RA8876_I2CM_Write                        0x0800b48b   Thumb Code    10  ra8876.o(.text)
    RA8876_I2CM_Check_Slave_ACK              0x0800b495   Thumb Code    30  ra8876.o(.text)
    RA8876_I2CM_Bus_Busy                     0x0800b4b3   Thumb Code    30  ra8876.o(.text)
    RA8876_I2CM_transmit_Progress            0x0800b4d1   Thumb Code    30  ra8876.o(.text)
    RA8876_I2CM_Arbitration                  0x0800b4ef   Thumb Code    20  ra8876.o(.text)
    Set_GPIO_A_In_Out                        0x0800b503   Thumb Code    14  ra8876.o(.text)
    Write_GPIO_A_7_0                         0x0800b511   Thumb Code    14  ra8876.o(.text)
    Read_GPIO_A_7_0                          0x0800b51f   Thumb Code    16  ra8876.o(.text)
    Write_GPIO_B_7_4                         0x0800b52f   Thumb Code    14  ra8876.o(.text)
    Read_GPIO_B_7_0                          0x0800b53d   Thumb Code    16  ra8876.o(.text)
    Set_GPIO_C_In_Out                        0x0800b54d   Thumb Code    12  ra8876.o(.text)
    Write_GPIO_C_7_0                         0x0800b559   Thumb Code    14  ra8876.o(.text)
    Read_GPIO_C_7_0                          0x0800b567   Thumb Code    16  ra8876.o(.text)
    Set_GPIO_D_In_Out                        0x0800b577   Thumb Code    14  ra8876.o(.text)
    Write_GPIO_D_7_0                         0x0800b585   Thumb Code    12  ra8876.o(.text)
    Read_GPIO_D_7_0                          0x0800b591   Thumb Code    14  ra8876.o(.text)
    Set_GPIO_E_In_Out                        0x0800b59f   Thumb Code    18  ra8876.o(.text)
    Write_GPIO_E_7_0                         0x0800b5b1   Thumb Code    14  ra8876.o(.text)
    Read_GPIO_E_7_0                          0x0800b5bf   Thumb Code    16  ra8876.o(.text)
    Set_GPIO_F_In_Out                        0x0800b5cf   Thumb Code    14  ra8876.o(.text)
    Write_GPIO_F_7_0                         0x0800b5dd   Thumb Code    14  ra8876.o(.text)
    Read_GPIO_F_7_0                          0x0800b5eb   Thumb Code    16  ra8876.o(.text)
    Long_Key_enable                          0x0800b5fb   Thumb Code    22  ra8876.o(.text)
    Key_Scan_Freg                            0x0800b611   Thumb Code    30  ra8876.o(.text)
    Key_Scan_Wakeup_Function_Enable          0x0800b62f   Thumb Code    24  ra8876.o(.text)
    Long_Key_Timing_Adjustment               0x0800b647   Thumb Code    28  ra8876.o(.text)
    Numbers_of_Key_Hit                       0x0800b663   Thumb Code    20  ra8876.o(.text)
    Read_Key_Strobe_Data_0                   0x0800b677   Thumb Code    16  ra8876.o(.text)
    Read_Key_Strobe_Data_1                   0x0800b687   Thumb Code    16  ra8876.o(.text)
    Read_Key_Strobe_Data_2                   0x0800b697   Thumb Code    16  ra8876.o(.text)
    Show_String                              0x0800b6a7   Thumb Code    46  ra8876.o(.text)
    Show_picture                             0x0800b6d5   Thumb Code    38  ra8876.o(.text)
    PWM0_ON                                  0x0800b6fb   Thumb Code    36  ra8876.o(.text)
    RA8876_HW_Reset                          0x0800b725   Thumb Code    32  lcd.o(.text)
    System_Check_Temp                        0x0800b745   Thumb Code   110  lcd.o(.text)
    lcd_rst                                  0x0800b7b3   Thumb Code    32  lcd.o(.text)
    LCD_WriteRAM_Prepare                     0x0800b7d3   Thumb Code    10  lcd.o(.text)
    LCD_DrawPoint                            0x0800b7dd   Thumb Code    70  lcd.o(.text)
    LCD_SetTextColor                         0x0800b823   Thumb Code     6  lcd.o(.text)
    LCD_SetBackColor                         0x0800b829   Thumb Code     6  lcd.o(.text)
    LCD_Set_DisplayWindow                    0x0800b82f   Thumb Code    74  lcd.o(.text)
    LCD_SetCursor                            0x0800b879   Thumb Code    46  lcd.o(.text)
    LCD_Clear                                0x0800b8a7   Thumb Code    82  lcd.o(.text)
    LCD_Set_DisplayWindow_A                  0x0800b8f9   Thumb Code    98  lcd.o(.text)
    PIP_Set_DisplayWindow_A                  0x0800b95b   Thumb Code    62  lcd.o(.text)
    LCD_All_color                            0x0800b999   Thumb Code   114  lcd.o(.text)
    LCD_All_color_A                          0x0800ba0b   Thumb Code    86  lcd.o(.text)
    LCD_WriteArea                            0x0800ba61   Thumb Code   142  lcd.o(.text)
    LCD_SetPoint_A                           0x0800baef   Thumb Code   104  lcd.o(.text)
    LCD_SetPoint                             0x0800bb57   Thumb Code    26  lcd.o(.text)
    LCD_PutChar_A                            0x0800bb71   Thumb Code   202  lcd.o(.text)
    LCD_PutChar                              0x0800bc3b   Thumb Code   108  lcd.o(.text)
    LCD_DisplayString                        0x0800bca7   Thumb Code    76  lcd.o(.text)
    LCD_DisplayString_A                      0x0800bcf3   Thumb Code    76  lcd.o(.text)
    DispStr48                                0x0800bd3f   Thumb Code   376  lcd.o(.text)
    LCD_DisplayStringLine                    0x0800beb7   Thumb Code    80  lcd.o(.text)
    LCD_DrawLine                             0x0800bf07   Thumb Code   118  lcd.o(.text)
    LCD_DrawRect                             0x0800bf7d   Thumb Code    66  lcd.o(.text)
    LCD_DrawCircle                           0x0800bfbf   Thumb Code   252  lcd.o(.text)
    LCD_Border_A                             0x0800c0bb   Thumb Code   174  lcd.o(.text)
    SystemInit                               0x0800c259   Thumb Code    68  system_stm32f10x.o(.text)
    SD_InitializeCards                       0x0800c2ad   Thumb Code   436  sdcard.o(.text)
    SD_PowerON                               0x0800c589   Thumb Code   484  sdcard.o(.text)
    SD_Init                                  0x0800c76d   Thumb Code   122  sdcard.o(.text)
    SD_PowerOFF                              0x0800c7e7   Thumb Code    14  sdcard.o(.text)
    SD_GetCardInfo                           0x0800c7f5   Thumb Code   626  sdcard.o(.text)
    SD_EnableWideBusOperation                0x0800cc8b   Thumb Code   124  sdcard.o(.text)
    SD_SetDeviceMode                         0x0800cd07   Thumb Code    28  sdcard.o(.text)
    SD_SelectDeselect                        0x0800cd23   Thumb Code    40  sdcard.o(.text)
    SD_ReadBlock                             0x0800cd4b   Thumb Code   612  sdcard.o(.text)
    SD_ReadMultiBlocks                       0x0800cfaf   Thumb Code   678  sdcard.o(.text)
    SD_WriteBlock                            0x0800d3c1   Thumb Code   868  sdcard.o(.text)
    SD_WriteMultiBlocks                      0x0800d725   Thumb Code   988  sdcard.o(.text)
    SD_GetTransferState                      0x0800db01   Thumb Code    14  sdcard.o(.text)
    SD_StopTransfer                          0x0800db0f   Thumb Code    36  sdcard.o(.text)
    SD_Erase                                 0x0800db33   Thumb Code   294  sdcard.o(.text)
    SD_SendStatus                            0x0800dc59   Thumb Code    72  sdcard.o(.text)
    SD_SendSDStatus                          0x0800dca1   Thumb Code   370  sdcard.o(.text)
    SD_ProcessIRQSrc                         0x0800de13   Thumb Code   450  sdcard.o(.text)
    FAT_Init                                 0x0800dfe9   Thumb Code   190  fat.o(.text)
    FAT_LoadPartCluster                      0x0800e0a7   Thumb Code    36  fat.o(.text)
    FAT_NextCluster                          0x0800e0cb   Thumb Code    78  fat.o(.text)
    FAT_FindFreeCluster                      0x0800e119   Thumb Code   146  fat.o(.text)
    FAT_FindFreeItem                         0x0800e1ab   Thumb Code   414  fat.o(.text)
    FAT_FindItem                             0x0800e349   Thumb Code   526  fat.o(.text)
    FAT_SelectOneItem                        0x0800e557   Thumb Code   440  fat.o(.text)
    FAT_ModifyFAT                            0x0800e70f   Thumb Code   146  fat.o(.text)
    FAT_MkDir                                0x0800e7a1   Thumb Code   724  fat.o(.text)
    FAT_DelItem                              0x0800ea75   Thumb Code   338  fat.o(.text)
    FAT_OpenDir                              0x0800ebc7   Thumb Code   232  fat.o(.text)
    FAT_RmDir                                0x0800ecaf   Thumb Code    24  fat.o(.text)
    FAT_Create                               0x0800ecc7   Thumb Code   490  fat.o(.text)
    FAT_Open                                 0x0800eeb1   Thumb Code   280  fat.o(.text)
    FAT_Close                                0x0800efc9   Thumb Code     8  fat.o(.text)
    FAT_Write                                0x0800efd1   Thumb Code    90  fat.o(.text)
    FAT_Delete                               0x0800f02b   Thumb Code    24  fat.o(.text)
    FAT_Rename                               0x0800f043   Thumb Code   454  fat.o(.text)
    CopyDirentruyItem                        0x0800f209   Thumb Code   172  fat.o(.text)
    WriteFolderCluster                       0x0800f2b5   Thumb Code     6  fat.o(.text)
    GetFolderCluster                         0x0800f2bb   Thumb Code     6  fat.o(.text)
    SearchFolder                             0x0800f2c1   Thumb Code   438  fat.o(.text)
    SearchInit                               0x0800f477   Thumb Code    74  fat.o(.text)
    Search                                   0x0800f4c1   Thumb Code  1202  fat.o(.text)
    Search_man                               0x0800f973   Thumb Code   488  fat.o(.text)
    __aeabi_memcpy                           0x0800fb69   Thumb Code    36  memcpya.o(.text)
    __aeabi_memcpy4                          0x0800fb69   Thumb Code     0  memcpya.o(.text)
    __aeabi_memcpy8                          0x0800fb69   Thumb Code     0  memcpya.o(.text)
    __aeabi_memset                           0x0800fb8d   Thumb Code    14  memseta.o(.text)
    __aeabi_memset4                          0x0800fb8d   Thumb Code     0  memseta.o(.text)
    __aeabi_memset8                          0x0800fb8d   Thumb Code     0  memseta.o(.text)
    __aeabi_memclr                           0x0800fb9b   Thumb Code     4  memseta.o(.text)
    __aeabi_memclr4                          0x0800fb9b   Thumb Code     0  memseta.o(.text)
    __aeabi_memclr8                          0x0800fb9b   Thumb Code     0  memseta.o(.text)
    _memset$wrapper                          0x0800fb9f   Thumb Code    18  memseta.o(.text)
    __aeabi_uidiv                            0x0800fbb1   Thumb Code     0  uidiv.o(.text)
    __aeabi_uidivmod                         0x0800fbb1   Thumb Code    44  uidiv.o(.text)
    __aeabi_uldivmod                         0x0800fbdd   Thumb Code    98  uldiv.o(.text)
    __I$use$fp                               0x0800fc3f   Thumb Code     0  iusefp.o(.text)
    __aeabi_dadd                             0x0800fc3f   Thumb Code   322  dadd.o(.text)
    __aeabi_dsub                             0x0800fd81   Thumb Code     6  dadd.o(.text)
    __aeabi_drsub                            0x0800fd87   Thumb Code     6  dadd.o(.text)
    __aeabi_dmul                             0x0800fd8d   Thumb Code   228  dmul.o(.text)
    __aeabi_ddiv                             0x0800fe71   Thumb Code   222  ddiv.o(.text)
    __aeabi_d2ulz                            0x0800ff4f   Thumb Code    48  dfixul.o(.text)
    __aeabi_cdrcmple                         0x0800ff81   Thumb Code    48  cdrcmple.o(.text)
    __scatterload                            0x0800ffb1   Thumb Code    28  init.o(.text)
    __scatterload_rt2                        0x0800ffb1   Thumb Code     0  init.o(.text)
    __aeabi_llsl                             0x0800ffd5   Thumb Code    30  llshl.o(.text)
    _ll_shift_l                              0x0800ffd5   Thumb Code     0  llshl.o(.text)
    __aeabi_llsr                             0x0800fff3   Thumb Code    32  llushr.o(.text)
    _ll_ushift_r                             0x0800fff3   Thumb Code     0  llushr.o(.text)
    __aeabi_lasr                             0x08010013   Thumb Code    36  llsshr.o(.text)
    _ll_sshift_r                             0x08010013   Thumb Code     0  llsshr.o(.text)
    _double_round                            0x08010037   Thumb Code    30  depilogue.o(.text)
    _double_epilogue                         0x08010055   Thumb Code   156  depilogue.o(.text)
    __decompress                             0x080100f1   Thumb Code     0  __dczerorl2.o(.text)
    __decompress1                            0x080100f1   Thumb Code    86  __dczerorl2.o(.text)
    __0printf$1                              0x08010149   Thumb Code    22  printf1.o(i.__0printf$1)
    __1printf$1                              0x08010149   Thumb Code     0  printf1.o(i.__0printf$1)
    __2printf                                0x08010149   Thumb Code     0  printf1.o(i.__0printf$1)
    __0vsprintf                              0x08010169   Thumb Code    30  printfa.o(i.__0vsprintf)
    __1vsprintf                              0x08010169   Thumb Code     0  printfa.o(i.__0vsprintf)
    __2vsprintf                              0x08010169   Thumb Code     0  printfa.o(i.__0vsprintf)
    __c89vsprintf                            0x08010169   Thumb Code     0  printfa.o(i.__0vsprintf)
    vsprintf                                 0x08010169   Thumb Code     0  printfa.o(i.__0vsprintf)
    __ARM_common_memset4_12                  0x0801018d   Thumb Code    18  fat.o(i.__ARM_common_memset4_12)
    __scatterload_copy                       0x0801019f   Thumb Code    14  handlers.o(i.__scatterload_copy)
    __scatterload_null                       0x080101ad   Thumb Code     2  handlers.o(i.__scatterload_null)
    __scatterload_zeroinit                   0x080101af   Thumb Code    14  handlers.o(i.__scatterload_zeroinit)
    free                                     0x08010bad   Thumb Code    76  malloc.o(i.free)
    malloc                                   0x08010bfd   Thumb Code    92  malloc.o(i.malloc)
    ASCII_Table                              0x08010dde   Data        4560  lcd.o(.constdata)
    codeGB_48                                0x08011fae   Data        3190  gb4848.o(.constdata)
    code24x48                                0x08012c24   Data        1450  24x48.o(.constdata)
    Region$$Table$$Base                      0x080131d0   Number         0  anon$$obj.o(Region$$Table)
    Region$$Table$$Limit                     0x080131f0   Number         0  anon$$obj.o(Region$$Table)
    current_time                             0x20000004   Data           4  main.o(.data)
    B1_event_flag                            0x20000008   Data           1  main.o(.data)
    B2_event_flag                            0x20000009   Data           1  main.o(.data)
    B6_event_flag                            0x2000000a   Data           1  main.o(.data)
    EraseStatus                              0x2000000b   Data           1  main.o(.data)
    TransferStatus1                          0x2000000c   Data           1  main.o(.data)
    TransferStatus2                          0x2000000d   Data           1  main.o(.data)
    Status                                   0x2000000e   Data           1  main.o(.data)
    buffer_data                              0x2000000f   Data           2  main.o(.data)
    Brightness_level                         0x20000011   Data           1  main.o(.data)
    sd_Capacity                              0x20000014   Data           4  main.o(.data)
    SDConfigFlag                             0x20000018   Data           1  main.o(.data)
    SDShowFlag                               0x20000019   Data           1  main.o(.data)
    SDShowTimes                              0x2000001a   Data           1  main.o(.data)
    GPIO_InitStructure                       0x2000001c   Data           4  main.o(.data)
    EXTI_InitStructure                       0x20000020   Data           8  main.o(.data)
    HorA                                     0x20000028   Data           1  main.o(.data)
    pic_num                                  0x20000029   Data           1  main.o(.data)
    pic_num_string                           0x2000002a   Data           1  main.o(.data)
    PIP_SWITCH_flag                          0x2000002b   Data           1  main.o(.data)
    PIC_NUM                                  0x2000002c   Data           1  main.o(.data)
    CCR3_Val                                 0x2000002e   Data           2  main.o(.data)
    mem_buffer1                              0x20000038   Data          22  spi_flash.o(.data)
    LCM_TYPE                                 0x20000052   Data           1  config_hard.o(.data)
    ID_OK                                    0x20000053   Data           1  config_hard.o(.data)
    ID1_READ                                 0x20000054   Data           1  config_hard.o(.data)
    ID2_READ                                 0x20000055   Data           1  config_hard.o(.data)
    ID3_READ                                 0x20000056   Data           1  config_hard.o(.data)
    ID1_VALUE                                0x20000057   Data           1  config_hard.o(.data)
    ID2_VALUE                                0x20000058   Data           1  config_hard.o(.data)
    ID3_VALUE                                0x20000059   Data           1  config_hard.o(.data)
    ID1_register                             0x2000005a   Data           1  config_hard.o(.data)
    ID2_register                             0x2000005b   Data           1  config_hard.o(.data)
    ID3_register                             0x2000005c   Data           1  config_hard.o(.data)
    mm_KEYB10                                0x2000005e   Data           2  config_hard.o(.data)
    mm_KEYB1                                 0x20000060   Data           2  config_hard.o(.data)
    mm_KEYB11                                0x20000062   Data           2  config_hard.o(.data)
    MIPI_SET                                 0x20000064   Data           6  config_hard.o(.data)
    PIC_SET_CACHE                            0x2000006a   Data          60  config_hard.o(.data)
    MIPI_SET_iphone_5C                       0x200000a6   Data           6  config_hard.o(.data)
    TIMING_SET_iphone_5C                     0x200000ac   Data          18  config_hard.o(.data)
    PIC_SET_CACHE_iphone_5C                  0x200000be   Data          60  config_hard.o(.data)
    MIPI_SET_iphone_5s                       0x200000fa   Data           6  config_hard.o(.data)
    TIMING_SET_iphone_5s                     0x20000100   Data          18  config_hard.o(.data)
    PIC_SET_CACHE_iphone_5s                  0x20000112   Data          60  config_hard.o(.data)
    MIPI_SET_iphone_6                        0x2000014e   Data           6  config_hard.o(.data)
    TIMING_SET_iphone_6                      0x20000154   Data          18  config_hard.o(.data)
    PIC_SET_CACHE_iphone_6                   0x20000166   Data          60  config_hard.o(.data)
    MIPI_SET_iphone_6_x                      0x200001a2   Data           6  config_hard.o(.data)
    TIMING_SET_iphone_6_x                    0x200001a8   Data          18  config_hard.o(.data)
    PIC_SET_CACHE_iphone_6_x                 0x200001ba   Data          60  config_hard.o(.data)
    MIPI_SET_iphone_5                        0x200001f6   Data           6  config_hard.o(.data)
    TIMING_SET_iphone_5                      0x200001fc   Data          18  config_hard.o(.data)
    PIC_SET_CACHE_iphone_5                   0x2000020e   Data          60  config_hard.o(.data)
    MIPI_SET_iphone_6plus                    0x2000024a   Data           6  config_hard.o(.data)
    TIMING_SET_iphone_6plus                  0x20000250   Data          18  config_hard.o(.data)
    PIC_SET_CACHE_iphone_6plus               0x20000262   Data          60  config_hard.o(.data)
    MIPI_SET_NOKIA_GPM1461A                  0x2000029e   Data           6  config_hard.o(.data)
    TIMING_SET_NOKIA_GPM1461A                0x200002a4   Data          18  config_hard.o(.data)
    PIC_SET_CACHE_nokia                      0x200002b6   Data          60  config_hard.o(.data)
    image_count                              0x200002f2   Data           2  disp.o(.data)
    image_all                                0x200002f4   Data           2  disp.o(.data)
    TOUCH_POINT1_X                           0x200002fa   Data           2  gt9271.o(.data)
    TOUCH_POINT1_Y                           0x200002fc   Data           2  gt9271.o(.data)
    TOUCH_POINT2_X                           0x200002fe   Data           2  gt9271.o(.data)
    TOUCH_POINT2_Y                           0x20000300   Data           2  gt9271.o(.data)
    TOUCH_POINT3_X                           0x20000302   Data           2  gt9271.o(.data)
    TOUCH_POINT3_Y                           0x20000304   Data           2  gt9271.o(.data)
    TOUCH_POINT4_X                           0x20000306   Data           2  gt9271.o(.data)
    TOUCH_POINT4_Y                           0x20000308   Data           2  gt9271.o(.data)
    TOUCH_POINT5_X                           0x2000030a   Data           2  gt9271.o(.data)
    TOUCH_POINT5_Y                           0x2000030c   Data           2  gt9271.o(.data)
    TOUCH_POINT6_X                           0x2000030e   Data           2  gt9271.o(.data)
    TOUCH_POINT6_Y                           0x20000310   Data           2  gt9271.o(.data)
    TOUCH_POINT7_X                           0x20000312   Data           2  gt9271.o(.data)
    TOUCH_POINT7_Y                           0x20000314   Data           2  gt9271.o(.data)
    TOUCH_POINT8_X                           0x20000316   Data           2  gt9271.o(.data)
    TOUCH_POINT8_Y                           0x20000318   Data           2  gt9271.o(.data)
    TOUCH_POINT9_X                           0x2000031a   Data           2  gt9271.o(.data)
    TOUCH_POINT9_Y                           0x2000031c   Data           2  gt9271.o(.data)
    TOUCH_POINT10_X                          0x2000031e   Data           2  gt9271.o(.data)
    TOUCH_POINT10_Y                          0x20000320   Data           2  gt9271.o(.data)
    TP_PROJECT_NAME                          0x20000322   Data           1  gt9271.o(.data)
    pucData                                  0x20000323   Data           2  gt9271.o(.data)
    TP_XDP                                   0x20000326   Data           2  gt9271.o(.data)
    TP_YDP                                   0x20000328   Data           2  gt9271.o(.data)
    TOUCH_TX                                 0x2000032a   Data           1  gt9271.o(.data)
    TOUCH_RX                                 0x2000032b   Data           1  gt9271.o(.data)
    TOUCH_POINT_SUM                          0x2000032c   Data           2  gt9271.o(.data)
    RESULT_AUTO_CHECK_NUM                    0x2000032e   Data           2  gt9271.o(.data)
    CTP_DEVICE_ADDRESS_GT9271                0x20000330   Data           1  gt9271.o(.data)
    CTP_GOOD_SAMPLE_NUM                      0x20000331   Data           1  gt9271.o(.data)
    IDD_UA_preset                            0x20000332   Data           2  iic_current.o(.data)
    IDD_UA_decom                             0x20000334   Data           2  iic_current.o(.data)
    IDD_MA                                   0x20000336   Data           2  iic_current.o(.data)
    SCAN_FREQ                                0x20000350   Data           2  ra8876.o(.data)
    TransferError                            0x2000035c   Data           1  sdcard.o(.data)
    TransferEnd                              0x20000374   Data           4  sdcard.o(.data)
    NumberOfBytes                            0x20000378   Data           4  sdcard.o(.data)
    SrcBuffer                                0x2000037c   Data           4  sdcard.o(.data)
    DestBuffer                               0x20000380   Data           4  sdcard.o(.data)
    LongNameFlag                             0x20000384   Data           1  fat.o(.data)
    FAT32_Enable                             0x20000385   Data           1  fat.o(.data)
    BytesPerSector                           0x20000386   Data           2  fat.o(.data)
    SectorsPerClust                          0x20000388   Data           2  fat.o(.data)
    FirstDirClust                            0x2000038c   Data           4  fat.o(.data)
    FirstDataSector                          0x20000390   Data           4  fat.o(.data)
    FATsectors                               0x20000394   Data           4  fat.o(.data)
    FirstFATSector                           0x20000398   Data           4  fat.o(.data)
    FirstDirSector                           0x2000039c   Data           4  fat.o(.data)
    RootDirSectors                           0x200003a0   Data           4  fat.o(.data)
    RootDirCount                             0x200003a4   Data           4  fat.o(.data)
    __stdout                                 0x200003a8   Data           4  stdout.o(.data)
    __microlib_freelist                      0x200003ac   Data           4  mvars.o(.data)
    __microlib_freelist_initialised          0x200003b0   Data           4  mvars.o(.data)
    time_now                                 0x200003b4   Data          44  main.o(.bss)
    SDCardInfo                               0x200003e0   Data          80  main.o(.bss)
    Buffer_Block_Tx                          0x20000430   Data         512  main.o(.bss)
    Buffer_Block_Rx                          0x20000630   Data         512  main.o(.bss)
    Buffer_MultiBlock_Tx                     0x20000830   Data        1024  main.o(.bss)
    Buffer_MultiBlock_Rx                     0x20000c30   Data        1024  main.o(.bss)
    buffer                                   0x20001030   Data        5000  main.o(.bss)
    tmp                                      0x200023b8   Data          20  main.o(.bss)
    Flash_Data_Buff                          0x200023cc   Data        4096  spi_flash.o(.bss)
    mem_buffer                               0x200033cc   Data        4096  spi_flash.o(.bss)
    MIPI_Array                               0x200043cc   Data         300  config_hard.o(.bss)
    MIPI_READ_DATA                           0x200044f8   Data          10  config_hard.o(.bss)
    TIMING_SET                               0x20004502   Data          18  config_hard.o(.bss)
    BMPInfo                                  0x20004514   Data          32  disp.o(.bss)
    pucData_A                                0x20004534   Data        1000  gt9271.o(.bss)
    pucData_B                                0x2000491c   Data        1000  gt9271.o(.bss)
    TOUCH_XY_check                           0x20004d04   Data         288  gt9271.o(.bss)
    RAWDATA_DEFAULT                          0x20004e24   Data        1200  gt9271.o(.bss)
    RAWDATA_DEFAULT_new                      0x200052d4   Data        1200  gt9271.o(.bss)
    SDIO_InitStructure                       0x200057e0   Data          24  sdcard.o(.bss)
    SDIO_CmdInitStructure                    0x200057f8   Data          20  sdcard.o(.bss)
    SDIO_DataInitStructure                   0x2000580c   Data          24  sdcard.o(.bss)
    LongNameBuffer                           0x20005840   Data         132  fat.o(.bss)
    FileInfo                                 0x200058c4   Data          15  fat.o(.bss)
    recordBuf                                0x200058d3   Data        1024  fat.o(.bss)
    __heap_base                              0x20005cd8   Data           0  startup_stm32f10x_hd.o(HEAP)
    __heap_limit                             0x200060d8   Data           0  startup_stm32f10x_hd.o(HEAP)
    __initial_sp                             0x200070d8   Data           0  startup_stm32f10x_hd.o(STACK)



==============================================================================

Memory Map of the image

  Image Entry point : 0x08000131

  Load Region LR_IROM1 (Base: 0x08000000, Size: 0x000135a4, Max: 0x00040000, ABSOLUTE, COMPRESSED[0x00013318])

    Execution Region ER_IROM1 (Base: 0x08000000, Size: 0x000131f0, Max: 0x00040000, ABSOLUTE)

    Base Addr    Size         Type   Attr      Idx    E Section Name        Object

    0x08000000   0x00000130   Data   RO          529    RESET               startup_stm32f10x_hd.o
    0x08000130   0x00000000   Code   RO          786  * .ARM.Collect$$$$00000000  mc_w.l(entry.o)
    0x08000130   0x00000004   Code   RO         1087    .ARM.Collect$$$$00000001  mc_w.l(entry2.o)
    0x08000134   0x00000004   Code   RO         1090    .ARM.Collect$$$$00000004  mc_w.l(entry5.o)
    0x08000138   0x00000000   Code   RO         1092    .ARM.Collect$$$$00000008  mc_w.l(entry7b.o)
    0x08000138   0x00000000   Code   RO         1094    .ARM.Collect$$$$0000000A  mc_w.l(entry8b.o)
    0x08000138   0x00000008   Code   RO         1095    .ARM.Collect$$$$0000000B  mc_w.l(entry9a.o)
    0x08000140   0x00000000   Code   RO         1097    .ARM.Collect$$$$0000000D  mc_w.l(entry10a.o)
    0x08000140   0x00000000   Code   RO         1099    .ARM.Collect$$$$0000000F  mc_w.l(entry11a.o)
    0x08000140   0x00000004   Code   RO         1088    .ARM.Collect$$$$00002712  mc_w.l(entry2.o)
    0x08000144   0x000000be   Code   RO            1    .text               fsmc_sram.o
    0x08000202   0x00000002   PAD
    0x08000204   0x0000105c   Code   RO           67    .text               main.o
    0x08001260   0x0000002a   Code   RO          142    .text               stm32f10x_it.o
    0x0800128a   0x00000002   PAD
    0x0800128c   0x000000c8   Code   RO          159    .text               delay.o
    0x08001354   0x00000754   Code   RO          173    .text               spi_flash.o
    0x08001aa8   0x000000dc   Code   RO          189    .text               usart.o
    0x08001b84   0x000028a4   Code   RO          249    .text               config_hard.o
    0x08004428   0x000001e8   Code   RO          276    .text               disp.o
    0x08004610   0x0000042e   Code   RO          302    .text               lcd1602.o
    0x08004a3e   0x00000002   PAD
    0x08004a40   0x00001138   Code   RO          314    .text               gt9271.o
    0x08005b78   0x000004c0   Code   RO          344    .text               iic_current.o
    0x08006038   0x000000dc   Code   RO          363    .text               misc.o
    0x08006114   0x00000140   Code   RO          375    .text               stm32f10x_exti.o
    0x08006254   0x00000604   Code   RO          387    .text               stm32f10x_fsmc.o
    0x08006858   0x00000330   Code   RO          399    .text               stm32f10x_gpio.o
    0x08006b88   0x000003a0   Code   RO          411    .text               stm32f10x_rcc.o
    0x08006f28   0x00000370   Code   RO          425    .text               stm32f10x_usart.o
    0x08007298   0x00000300   Code   RO          437    .text               stm32f10x_spi.o
    0x08007598   0x00000240   Code   RO          449    .text               stm32f10x_dma.o
    0x080077d8   0x000001c8   Code   RO          461    .text               stm32f10x_sdio.o
    0x080079a0   0x00000bc6   Code   RO          515    .text               stm32f10x_tim.o
    0x08008566   0x00000002   PAD
    0x08008568   0x00000030   Code   RO          530    .text               startup_stm32f10x_hd.o
    0x08008598   0x0000318c   Code   RO          535    .text               ra8876.o
    0x0800b724   0x00000a50   Code   RO          560    .text               lcd.o
    0x0800c174   0x00000138   Code   RO          624    .text               system_stm32f10x.o
    0x0800c2ac   0x00001d3c   Code   RO          654    .text               SDFAT.lib(sdcard.o)
    0x0800dfe8   0x00001b80   Code   RO          758    .text               SDFAT.lib(fat.o)
    0x0800fb68   0x00000024   Code   RO          792    .text               mc_w.l(memcpya.o)
    0x0800fb8c   0x00000024   Code   RO          794    .text               mc_w.l(memseta.o)
    0x0800fbb0   0x0000002c   Code   RO         1102    .text               mc_w.l(uidiv.o)
    0x0800fbdc   0x00000062   Code   RO         1104    .text               mc_w.l(uldiv.o)
    0x0800fc3e   0x00000000   Code   RO         1108    .text               mc_w.l(iusefp.o)
    0x0800fc3e   0x0000014e   Code   RO         1109    .text               mf_w.l(dadd.o)
    0x0800fd8c   0x000000e4   Code   RO         1111    .text               mf_w.l(dmul.o)
    0x0800fe70   0x000000de   Code   RO         1113    .text               mf_w.l(ddiv.o)
    0x0800ff4e   0x00000030   Code   RO         1115    .text               mf_w.l(dfixul.o)
    0x0800ff7e   0x00000002   PAD
    0x0800ff80   0x00000030   Code   RO         1117    .text               mf_w.l(cdrcmple.o)
    0x0800ffb0   0x00000024   Code   RO         1119    .text               mc_w.l(init.o)
    0x0800ffd4   0x0000001e   Code   RO         1121    .text               mc_w.l(llshl.o)
    0x0800fff2   0x00000020   Code   RO         1123    .text               mc_w.l(llushr.o)
    0x08010012   0x00000024   Code   RO         1125    .text               mc_w.l(llsshr.o)
    0x08010036   0x000000ba   Code   RO         1127    .text               mf_w.l(depilogue.o)
    0x080100f0   0x00000056   Code   RO         1137    .text               mc_w.l(__dczerorl2.o)
    0x08010146   0x00000002   PAD
    0x08010148   0x00000020   Code   RO          843    i.__0printf$1       mc_w.l(printf1.o)
    0x08010168   0x00000024   Code   RO         1037    i.__0vsprintf       mc_w.l(printfa.o)
    0x0801018c   0x00000012   Code   RO          774    i.__ARM_common_memset4_12  SDFAT.lib(fat.o)
    0x0801019e   0x0000000e   Code   RO         1131    i.__scatterload_copy  mc_w.l(handlers.o)
    0x080101ac   0x00000002   Code   RO         1132    i.__scatterload_null  mc_w.l(handlers.o)
    0x080101ae   0x0000000e   Code   RO         1133    i.__scatterload_zeroinit  mc_w.l(handlers.o)
    0x080101bc   0x00000164   Code   RO         1038    i._fp_digits        mc_w.l(printfa.o)
    0x08010320   0x00000154   Code   RO          850    i._printf_core      mc_w.l(printf1.o)
    0x08010474   0x000006dc   Code   RO         1039    i._printf_core      mc_w.l(printfa.o)
    0x08010b50   0x00000024   Code   RO         1040    i._printf_post_padding  mc_w.l(printfa.o)
    0x08010b74   0x0000002e   Code   RO         1041    i._printf_pre_padding  mc_w.l(printfa.o)
    0x08010ba2   0x0000000a   Code   RO         1043    i._sputc            mc_w.l(printfa.o)
    0x08010bac   0x00000050   Code   RO         1059    i.free              mc_w.l(malloc.o)
    0x08010bfc   0x0000006c   Code   RO         1060    i.malloc            mc_w.l(malloc.o)
    0x08010c68   0x00000176   Data   RO          316    .constdata          gt9271.o
    0x08010dde   0x000011d0   Data   RO          561    .constdata          lcd.o
    0x08011fae   0x00000c76   Data   RO          591    .constdata          gb4848.o
    0x08012c24   0x000005aa   Data   RO          606    .constdata          24x48.o
    0x080131ce   0x00000002   PAD
    0x080131d0   0x00000020   Data   RO         1129    Region$$Table       anon$$obj.o


    Execution Region RW_IRAM1 (Base: 0x20000000, Size: 0x000070d8, Max: 0x0000c000, ABSOLUTE, COMPRESSED[0x00000128])

    Base Addr    Size         Type   Attr      Idx    E Section Name        Object

    0x20000000   0x00000030   Data   RW           69    .data               main.o
    0x20000030   0x00000004   Data   RW          160    .data               delay.o
    0x20000034   0x0000001a   Data   RW          175    .data               spi_flash.o
    0x2000004e   0x000002a4   Data   RW          251    .data               config_hard.o
    0x200002f2   0x00000004   Data   RW          278    .data               disp.o
    0x200002f6   0x0000003c   Data   RW          317    .data               gt9271.o
    0x20000332   0x00000006   Data   RW          345    .data               iic_current.o
    0x20000338   0x00000014   Data   RW          412    .data               stm32f10x_rcc.o
    0x2000034c   0x00000006   Data   RW          536    .data               ra8876.o
    0x20000352   0x00000008   Data   RW          562    .data               lcd.o
    0x2000035a   0x00000002   PAD
    0x2000035c   0x00000028   Data   RW          656    .data               SDFAT.lib(sdcard.o)
    0x20000384   0x00000024   Data   RW          763    .data               SDFAT.lib(fat.o)
    0x200003a8   0x00000004   Data   RW         1101    .data               mc_w.l(stdout.o)
    0x200003ac   0x00000004   Data   RW         1106    .data               mc_w.l(mvars.o)
    0x200003b0   0x00000004   Data   RW         1107    .data               mc_w.l(mvars.o)
    0x200003b4   0x00002018   Zero   RW           68    .bss                main.o
    0x200023cc   0x00002000   Zero   RW          174    .bss                spi_flash.o
    0x200043cc   0x00000148   Zero   RW          250    .bss                config_hard.o
    0x20004514   0x00000020   Zero   RW          277    .bss                disp.o
    0x20004534   0x00001250   Zero   RW          315    .bss                gt9271.o
    0x20005784   0x0000003c   PAD
    0x200057c0   0x00000064   Zero   RW          655    .bss                SDFAT.lib(sdcard.o)
    0x20005824   0x0000001c   PAD
    0x20005840   0x00000493   Zero   RW          760    .bss                SDFAT.lib(fat.o)
    0x20005cd3   0x00000005   PAD
    0x20005cd8   0x00000400   Zero   RW          528    HEAP                startup_stm32f10x_hd.o
    0x200060d8   0x00001000   Zero   RW          527    STACK               startup_stm32f10x_hd.o


==============================================================================

Image component sizes


      Code (inc. data)   RO Data    RW Data    ZI Data      Debug   Object Name

         0          0       1450          0          0        536   24x48.o
     10404        504          0        676        328      16724   config_hard.o
       200          8          0          4          0       1169   delay.o
       488         26          0          4         32       2028   disp.o
       190          0          0          0          0     286782   fsmc_sram.o
         0          0       3190          0          0        544   gb4848.o
      4408        300        374         60       4688      11519   gt9271.o
      1216         20          0          6          0       4808   iic_current.o
      2640         52       4560          8          0      11579   lcd.o
      1070         12          0          0          0       3600   lcd1602.o
      4188        458          0         48       8216      19661   main.o
       220         22          0          0          0       1725   misc.o
     12684         74          0          6          0      72422   ra8876.o
      1876         30          0         26       8192       9108   spi_flash.o
        48         12        304          0       5120        856   startup_stm32f10x_hd.o
       576         16          0          0          0       3475   stm32f10x_dma.o
       320         14          0          0          0       2135   stm32f10x_exti.o
      1540         16          0          0          0       5303   stm32f10x_fsmc.o
       816         18          0          0          0       5179   stm32f10x_gpio.o
        42          0          0          0          0       1511   stm32f10x_it.o
       928         36          0         20          0       8824   stm32f10x_rcc.o
       456         22          0          0          0       6944   stm32f10x_sdio.o
       768          6          0          0          0       6326   stm32f10x_spi.o
      3014         16          0          0          0      24500   stm32f10x_tim.o
       880         12          0          0          0       7811   stm32f10x_usart.o
       312         16          0          0          0       1161   system_stm32f10x.o
       220         10          0          0          0       2380   usart.o

    ----------------------------------------------------------------------
     49512       1700       9912        860      26636     518610   Object Totals
         0          0         32          0          0          0   (incl. Generated)
         8          0          2          2         60          0   (incl. Padding)

    ----------------------------------------------------------------------

      Code (inc. data)   RO Data    RW Data    ZI Data      Debug   Library Member Name

      7058         78          0         36       1171      24272   fat.o
      7484        232          0         40        100      52447   sdcard.o
        86          0          0          0          0          0   __dczerorl2.o
         0          0          0          0          0          0   entry.o
         0          0          0          0          0          0   entry10a.o
         0          0          0          0          0          0   entry11a.o
         8          4          0          0          0          0   entry2.o
         4          0          0          0          0          0   entry5.o
         0          0          0          0          0          0   entry7b.o
         0          0          0          0          0          0   entry8b.o
         8          4          0          0          0          0   entry9a.o
        30          0          0          0          0          0   handlers.o
        36          8          0          0          0         68   init.o
         0          0          0          0          0          0   iusefp.o
        30          0          0          0          0         68   llshl.o
        36          0          0          0          0         68   llsshr.o
        32          0          0          0          0         68   llushr.o
       188         20          0          0          0        160   malloc.o
        36          0          0          0          0         68   memcpya.o
        36          0          0          0          0        108   memseta.o
         0          0          0          8          0          0   mvars.o
       372         14          0          0          0        184   printf1.o
      2240         86          0          0          0        508   printfa.o
         0          0          0          4          0          0   stdout.o
        44          0          0          0          0         80   uidiv.o
        98          0          0          0          0         92   uldiv.o
        48          0          0          0          0         68   cdrcmple.o
       334          0          0          0          0        148   dadd.o
       222          0          0          0          0        100   ddiv.o
       186          0          0          0          0        176   depilogue.o
        48          0          0          0          0         68   dfixul.o
       228          0          0          0          0         96   dmul.o

    ----------------------------------------------------------------------
     18896        446          0         88       1304      78847   Library Totals
         4          0          0          0         33          0   (incl. Padding)

    ----------------------------------------------------------------------

      Code (inc. data)   RO Data    RW Data    ZI Data      Debug   Library Name

     14542        310          0         76       1271      76719   SDFAT.lib
      3284        136          0         12          0       1472   mc_w.l
      1066          0          0          0          0        656   mf_w.l

    ----------------------------------------------------------------------
     18896        446          0         88       1304      78847   Library Totals

    ----------------------------------------------------------------------

==============================================================================


      Code (inc. data)   RO Data    RW Data    ZI Data      Debug   

     68408       2146       9912        948      27940     593737   Grand Totals
     68408       2146       9912        296      27940     593737   ELF Image Totals (compressed)
     68408       2146       9912        296          0          0   ROM Totals

==============================================================================

    Total RO  Size (Code + RO Data)                78320 (  76.48kB)
    Total RW  Size (RW Data + ZI Data)             28888 (  28.21kB)
    Total ROM Size (Code + RO Data + RW Data)      78616 (  76.77kB)

==============================================================================

